

Microchip Technology PIC18 LITE Macro Assembler V1.38 build -256452561 
                                                                                               Wed Apr 12 00:24:27 2017

Microchip Technology Omniscient Code Generator v1.38 (Free mode) build 201607010351
     1                           	processor	18F46K80
     2                           	fnconf	rparam,??,?,0
     3                           	opt	pw 120
     4                           	opt	lm
     5                           	psect	idataCOMRAM,global,class=CODE,delta=1
     6                           	psect	idataBANK0,global,class=CODE,delta=1
     7                           	psect	cinit,global,reloc=2,class=CODE,delta=1
     8                           	psect	bssCOMRAM,global,class=COMRAM,space=1,delta=1
     9                           	psect	dataCOMRAM,global,class=COMRAM,space=1,delta=1
    10                           	psect	dataBANK0,global,class=BANK0,space=1,delta=1
    11                           	psect	cstackCOMRAM,global,class=COMRAM,space=1,delta=1
    12                           	psect	text0,global,reloc=2,class=CODE,delta=1
    13                           	psect	text1,global,reloc=2,class=CODE,delta=1
    14                           	psect	text2,global,reloc=2,class=CODE,delta=1
    15                           	psect	text3,global,reloc=2,class=CODE,delta=1
    16                           	psect	text4,global,reloc=2,class=CODE,delta=1
    17                           	psect	text5,global,reloc=2,class=CODE,delta=1
    18                           	psect	text6,global,reloc=2,class=CODE,delta=1
    19                           	psect	text7,global,reloc=2,class=CODE,delta=1
    20                           	psect	text8,global,reloc=2,class=CODE,delta=1
    21                           	psect	text9,global,reloc=2,class=CODE,delta=1
    22                           	psect	intcode,global,reloc=2,class=CODE,delta=1
    23                           	psect	text11,global,reloc=2,class=CODE,delta=1
    24                           	psect	text12,global,reloc=2,class=CODE,delta=1
    25                           	psect	intsave_regs,global,class=BIGRAM,space=1,delta=1
    26                           	psect	rparam,global,class=COMRAM,space=1,delta=1
    27                           	psect	temp,global,ovrld,common,class=COMRAM,space=1,delta=1
    28  0000                     
    29                           	psect	idataCOMRAM
    30  000476                     __pidataCOMRAM:
    31                           	opt stack 0
    32                           
    33                           ;initializer for _I2C_slaveWriteData
    34  000476  55                 	db	85
    35                           
    36                           	psect	idataBANK0
    37  00022C                     __pidataBANK0:
    38                           	opt stack 0
    39                           
    40                           ;initializer for I2C_StatusCallbackOld@EEPROM_Buffer
    41  00022C  00                 	db	0
    42  00022D  01                 	db	1
    43  00022E  02                 	db	2
    44  00022F  03                 	db	3
    45  000230  04                 	db	4
    46  000231  05                 	db	5
    47  000232  06                 	db	6
    48  000233  07                 	db	7
    49  000234  08                 	db	8
    50  000235  09                 	db	9
    51  000236  0A                 	db	10
    52  000237  0B                 	db	11
    53  000238  0C                 	db	12
    54  000239  0D                 	db	13
    55  00023A  0E                 	db	14
    56  00023B  0F                 	db	15
    57  00023C  10                 	db	16
    58  00023D  11                 	db	17
    59  00023E  12                 	db	18
    60  00023F  13                 	db	19
    61  000240  14                 	db	20
    62  000241  15                 	db	21
    63  000242  16                 	db	22
    64  000243  17                 	db	23
    65  000244  18                 	db	24
    66  000245  19                 	db	25
    67  000246  1A                 	db	26
    68  000247  1B                 	db	27
    69  000248  1C                 	db	28
    70  000249  1D                 	db	29
    71  00024A  1E                 	db	30
    72  00024B  1F                 	db	31
    73  00024C  20                 	db	32
    74  00024D  21                 	db	33
    75  00024E  22                 	db	34
    76  00024F  23                 	db	35
    77  000250  24                 	db	36
    78  000251  25                 	db	37
    79  000252  26                 	db	38
    80  000253  27                 	db	39
    81  000254  28                 	db	40
    82  000255  29                 	db	41
    83  000256  2A                 	db	42
    84  000257  2B                 	db	43
    85  000258  2C                 	db	44
    86  000259  2D                 	db	45
    87  00025A  2E                 	db	46
    88  00025B  2F                 	db	47
    89  00025C  30                 	db	48
    90  00025D  31                 	db	49
    91  00025E  32                 	db	50
    92  00025F  33                 	db	51
    93  000260  34                 	db	52
    94  000261  35                 	db	53
    95  000262  36                 	db	54
    96  000263  37                 	db	55
    97  000264  38                 	db	56
    98  000265  39                 	db	57
    99  000266  3A                 	db	58
   100  000267  3B                 	db	59
   101  000268  3C                 	db	60
   102  000269  3D                 	db	61
   103  00026A  3E                 	db	62
   104  00026B  3F                 	db	63
   105  00026C  40                 	db	64
   106  00026D  41                 	db	65
   107  00026E  42                 	db	66
   108  00026F  43                 	db	67
   109  000270  44                 	db	68
   110  000271  45                 	db	69
   111  000272  46                 	db	70
   112  000273  47                 	db	71
   113  000274  48                 	db	72
   114  000275  49                 	db	73
   115  000276  4A                 	db	74
   116  000277  4B                 	db	75
   117  000278  4C                 	db	76
   118  000279  4D                 	db	77
   119  00027A  4E                 	db	78
   120  00027B  4F                 	db	79
   121  00027C  50                 	db	80
   122  00027D  51                 	db	81
   123  00027E  52                 	db	82
   124  00027F  53                 	db	83
   125  000280  54                 	db	84
   126  000281  55                 	db	85
   127  000282  56                 	db	86
   128  000283  57                 	db	87
   129  000284  58                 	db	88
   130  000285  59                 	db	89
   131  000286  5A                 	db	90
   132  000287  5B                 	db	91
   133  000288  5C                 	db	92
   134  000289  5D                 	db	93
   135  00028A  5E                 	db	94
   136  00028B  5F                 	db	95
   137  00028C  60                 	db	96
   138  00028D  61                 	db	97
   139  00028E  62                 	db	98
   140  00028F  63                 	db	99
   141  000290  64                 	db	100
   142  000291  65                 	db	101
   143  000292  66                 	db	102
   144  000293  67                 	db	103
   145  000294  68                 	db	104
   146  000295  69                 	db	105
   147  000296  6A                 	db	106
   148  000297  6B                 	db	107
   149  000298  6C                 	db	108
   150  000299  6D                 	db	109
   151  00029A  6E                 	db	110
   152  00029B  6F                 	db	111
   153  00029C  70                 	db	112
   154  00029D  71                 	db	113
   155  00029E  72                 	db	114
   156  00029F  73                 	db	115
   157  0002A0  74                 	db	116
   158  0002A1  75                 	db	117
   159  0002A2  76                 	db	118
   160  0002A3  77                 	db	119
   161  0002A4  78                 	db	120
   162  0002A5  79                 	db	121
   163  0002A6  7A                 	db	122
   164  0002A7  7B                 	db	123
   165  0002A8  7C                 	db	124
   166  0002A9  7D                 	db	125
   167  0002AA  7E                 	db	126
   168  0002AB  7F                 	db	127
   169  0000                     _WPUB	set	3931
   170  0000                     _BAUDCON1	set	4007
   171  0000                     _BAUDCON2	set	4025
   172  0000                     _INTCONbits	set	4082
   173  0000                     _IPR1bits	set	3999
   174  0000                     _LATA	set	3977
   175  0000                     _LATB	set	3978
   176  0000                     _LATC	set	3979
   177  0000                     _LATD	set	3980
   178  0000                     _LATE	set	3981
   179  0000                     _OSCCON	set	4051
   180  0000                     _OSCCON2	set	4050
   181  0000                     _OSCTUNE	set	3995
   182  0000                     _PIE1bits	set	3997
   183  0000                     _PIR1bits	set	3998
   184  0000                     _PIR3bits	set	4004
   185  0000                     _PORTCbits	set	3970
   186  0000                     _RCREG1	set	4014
   187  0000                     _RCREG2	set	3962
   188  0000                     _RCSTA1	set	4011
   189  0000                     _RCSTA1bits	set	4011
   190  0000                     _RCSTA2	set	4006
   191  0000                     _RCSTA2bits	set	4006
   192  0000                     _REFOCON	set	3994
   193  0000                     _SPBRG1	set	4015
   194  0000                     _SPBRG2	set	3963
   195  0000                     _SPBRGH1	set	3965
   196  0000                     _SPBRGH2	set	3964
   197  0000                     _SSPADD	set	4040
   198  0000                     _SSPBUF	set	4041
   199  0000                     _SSPCON1	set	4038
   200  0000                     _SSPCON1bits	set	4038
   201  0000                     _SSPCON2	set	4037
   202  0000                     _SSPSTAT	set	4039
   203  0000                     _SSPSTATbits	set	4039
   204  0000                     _TRISA	set	3986
   205  0000                     _TRISB	set	3987
   206  0000                     _TRISC	set	3988
   207  0000                     _TRISD	set	3989
   208  0000                     _TRISE	set	3990
   209  0000                     _TXREG1	set	4013
   210  0000                     _TXREG2	set	3961
   211  0000                     _TXSTA1	set	4012
   212  0000                     _TXSTA2	set	4026
   213  0000                     _GIE	set	32663
   214  0000                     _IPEN	set	32391
   215  0000                     _LATB0	set	31824
   216  0000                     _LATB2	set	31826
   217  0000                     _LATB3	set	31827
   218  0000                     _LATC0	set	31832
   219  0000                     _LATC1	set	31833
   220  0000                     _LATC2	set	31834
   221  0000                     _LATD0	set	31840
   222  0000                     _LATD1	set	31841
   223  0000                     _LATD2	set	31842
   224  0000                     _LATD3	set	31843
   225  0000                     _PEIE	set	32662
   226  0000                     _SSPIE	set	31979
   227  0000                     _SSPIF	set	31987
   228  0000                     _TRISC0	set	31904
   229  0000                     _TRISC1	set	31905
   230  0000                     _TRISC3	set	31907
   231  0000                     _TRISC4	set	31908
   232                           
   233                           ; #config settings
   234  0000                     
   235                           	psect	cinit
   236  00031A                     __pcinit:
   237                           	opt stack 0
   238  00031A                     start_initialization:
   239                           	opt stack 0
   240  00031A                     __initialization:
   241                           	opt stack 0
   242                           
   243                           ; Initialize objects allocated to BANK0 (128 bytes)
   244                           ; load TBLPTR registers with __pidataBANK0
   245  00031A  0E2C               	movlw	low __pidataBANK0
   246  00031C  6EF6               	movwf	tblptrl,c
   247  00031E  0E02               	movlw	high __pidataBANK0
   248  000320  6EF7               	movwf	tblptrh,c
   249  000322  0E00               	movlw	low (__pidataBANK0 shr (0+16))
   250  000324  6EF8               	movwf	tblptru,c
   251  000326  EE00  F060         	lfsr	0,__pdataBANK0
   252  00032A  EE10 F080          	lfsr	1,128
   253  00032E                     copy_data0:
   254  00032E  0009               	tblrd		*+
   255  000330  CFF5 FFEE          	movff	tablat,postinc0
   256  000334  50E5               	movf	postdec1,w,c
   257  000336  50E1               	movf	fsr1l,w,c
   258  000338  E1FA               	bnz	copy_data0
   259                           
   260                           ; Initialize objects allocated to COMRAM (1 bytes)
   261                           ; load TBLPTR registers with __pidataCOMRAM
   262  00033A  0E76               	movlw	low __pidataCOMRAM
   263  00033C  6EF6               	movwf	tblptrl,c
   264  00033E  0E04               	movlw	high __pidataCOMRAM
   265  000340  6EF7               	movwf	tblptrh,c
   266  000342  0E00               	movlw	low (__pidataCOMRAM shr (0+16))
   267  000344  6EF8               	movwf	tblptru,c
   268  000346  0009               	tblrd		*+	;fetch initializer
   269  000348  CFF5 F02D          	movff	tablat,__pdataCOMRAM
   270                           
   271                           ; Clear objects allocated to COMRAM (8 bytes)
   272  00034C  EE00  F025         	lfsr	0,__pbssCOMRAM
   273  000350  0E08               	movlw	8
   274  000352                     clear_0:
   275  000352  6AEE               	clrf	postinc0,c
   276  000354  06E8               	decf	wreg,f,c
   277  000356  E1FD               	bnz	clear_0
   278  000358                     end_of_initialization:
   279                           	opt stack 0
   280  000358                     __end_of__initialization:
   281                           	opt stack 0
   282  000358  902E               	bcf	int$flags,0,c	;clear compiler interrupt flag (level 1)
   283  00035A  922E               	bcf	int$flags,1,c	;clear compiler interrupt flag (level 2)
   284  00035C  0E00               	movlw	low (__Lmediumconst shr (0+16))
   285  00035E  6EF8               	movwf	tblptru,c
   286  000360  0100               	movlb	0
   287  000362  EF47  F000         	goto	_main	;jump to C main() function
   288                           tblptru	equ	0xFF8
   289                           tblptrh	equ	0xFF7
   290                           tblptrl	equ	0xFF6
   291                           tablat	equ	0xFF5
   292                           postinc0	equ	0xFEE
   293                           wreg	equ	0xFE8
   294                           postdec1	equ	0xFE5
   295                           fsr1l	equ	0xFE1
   296                           
   297                           	psect	bssCOMRAM
   298  000025                     __pbssCOMRAM:
   299                           	opt stack 0
   300  000025                     _address:
   301                           	opt stack 0
   302  000025                     	ds	2
   303  000027                     _data:
   304                           	opt stack 0
   305  000027                     	ds	2
   306  000029                     _n:
   307                           	opt stack 0
   308  000029                     	ds	2
   309  00002B                     I2C_StatusCallbackOld@eepromAddress:
   310                           	opt stack 0
   311  00002B                     	ds	1
   312  00002C                     I2C_StatusCallbackOld@slaveWriteType:
   313                           	opt stack 0
   314  00002C                     	ds	1
   315                           tblptru	equ	0xFF8
   316                           tblptrh	equ	0xFF7
   317                           tblptrl	equ	0xFF6
   318                           tablat	equ	0xFF5
   319                           postinc0	equ	0xFEE
   320                           wreg	equ	0xFE8
   321                           postdec1	equ	0xFE5
   322                           fsr1l	equ	0xFE1
   323                           
   324                           	psect	dataCOMRAM
   325  00002D                     __pdataCOMRAM:
   326                           	opt stack 0
   327  00002D                     _I2C_slaveWriteData:
   328                           	opt stack 0
   329  00002D                     	ds	1
   330                           tblptru	equ	0xFF8
   331                           tblptrh	equ	0xFF7
   332                           tblptrl	equ	0xFF6
   333                           tablat	equ	0xFF5
   334                           postinc0	equ	0xFEE
   335                           wreg	equ	0xFE8
   336                           postdec1	equ	0xFE5
   337                           fsr1l	equ	0xFE1
   338                           
   339                           	psect	dataBANK0
   340  000060                     __pdataBANK0:
   341                           	opt stack 0
   342  000060                     I2C_StatusCallbackOld@EEPROM_Buffer:
   343                           	opt stack 0
   344  000060                     	ds	128
   345                           tblptru	equ	0xFF8
   346                           tblptrh	equ	0xFF7
   347                           tblptrl	equ	0xFF6
   348                           tablat	equ	0xFF5
   349                           postinc0	equ	0xFEE
   350                           wreg	equ	0xFE8
   351                           postdec1	equ	0xFE5
   352                           fsr1l	equ	0xFE1
   353                           
   354                           	psect	cstackCOMRAM
   355  000001                     __pcstackCOMRAM:
   356                           	opt stack 0
   357  000001                     I2C_StatusCallback@i2c_bus_state:
   358                           	opt stack 0
   359                           
   360                           ; 1 bytes @ 0x0
   361  000001                     	ds	1
   362  000002                     I2C_StatusCallback@data:
   363                           	opt stack 0
   364                           
   365                           ; 1 bytes @ 0x1
   366  000002                     	ds	1
   367  000003                     I2C_ISR@i2c_data:
   368                           	opt stack 0
   369                           
   370                           ; 1 bytes @ 0x2
   371  000003                     	ds	1
   372  000004                     ??_INTERRUPT_InterruptManager:
   373                           
   374                           ; 1 bytes @ 0x3
   375  000004                     	ds	14
   376  000012                     ?___awdiv:
   377                           	opt stack 0
   378  000012                     ___awdiv@dividend:
   379                           	opt stack 0
   380                           
   381                           ; 2 bytes @ 0x11
   382  000012                     	ds	2
   383  000014                     ___awdiv@divisor:
   384                           	opt stack 0
   385                           
   386                           ; 2 bytes @ 0x13
   387  000014                     	ds	2
   388  000016                     ___awdiv@counter:
   389                           	opt stack 0
   390                           
   391                           ; 1 bytes @ 0x15
   392  000016                     	ds	1
   393  000017                     ___awdiv@sign:
   394                           	opt stack 0
   395                           
   396                           ; 1 bytes @ 0x16
   397  000017                     	ds	1
   398  000018                     ___awdiv@quotient:
   399                           	opt stack 0
   400                           
   401                           ; 2 bytes @ 0x17
   402  000018                     	ds	2
   403  00001A                     delay_ms@ms:
   404                           	opt stack 0
   405                           
   406                           ; 2 bytes @ 0x19
   407  00001A                     	ds	2
   408  00001C                     ??_delay_ms:
   409                           
   410                           ; 1 bytes @ 0x1B
   411  00001C                     	ds	1
   412  00001D                     delay_ms@n:
   413                           	opt stack 0
   414                           
   415                           ; 2 bytes @ 0x1C
   416  00001D                     	ds	2
   417  00001F                     delay_ms@i:
   418                           	opt stack 0
   419                           
   420                           ; 2 bytes @ 0x1E
   421  00001F                     	ds	2
   422  000021                     main@i:
   423                           	opt stack 0
   424                           
   425                           ; 2 bytes @ 0x20
   426  000021                     	ds	2
   427  000023                     main@delay:
   428                           	opt stack 0
   429                           
   430                           ; 2 bytes @ 0x22
   431  000023                     	ds	2
   432                           tblptru	equ	0xFF8
   433                           tblptrh	equ	0xFF7
   434                           tblptrl	equ	0xFF6
   435                           tablat	equ	0xFF5
   436                           postinc0	equ	0xFEE
   437                           wreg	equ	0xFE8
   438                           postdec1	equ	0xFE5
   439                           fsr1l	equ	0xFE1
   440                           
   441 ;;
   442 ;;Main: autosize = 0, tempsize = 0, incstack = 0, save=0
   443 ;;
   444 ;; *************** function _main *****************
   445 ;; Defined at:
   446 ;;		line 64 in file "main.c"
   447 ;; Parameters:    Size  Location     Type
   448 ;;		None
   449 ;; Auto vars:     Size  Location     Type
   450 ;;  i               2   32[COMRAM] int 
   451 ;;  delay           2   34[COMRAM] int 
   452 ;; Return value:  Size  Location     Type
   453 ;;                  1    wreg      void 
   454 ;; Registers used:
   455 ;;		wreg, status,2, status,0, cstack
   456 ;; Tracked objects:
   457 ;;		On entry : 0/0
   458 ;;		On exit  : 0/0
   459 ;;		Unchanged: 0/0
   460 ;; Data sizes:     COMRAM   BANK0   BANK1   BANK2   BANK3   BANK4   BANK5   BANK6   BANK7   BANK8   BANK9  BANK10  BANK1
      +1  BANK12  BANK13  BANK14
   461 ;;      Params:         0       0       0       0       0       0       0       0       0       0       0       0       
      +0       0       0       0
   462 ;;      Locals:         4       0       0       0       0       0       0       0       0       0       0       0       
      +0       0       0       0
   463 ;;      Temps:          0       0       0       0       0       0       0       0       0       0       0       0       
      +0       0       0       0
   464 ;;      Totals:         4       0       0       0       0       0       0       0       0       0       0       0       
      +0       0       0       0
   465 ;;Total ram usage:        4 bytes
   466 ;; Hardware stack levels required when called:    5
   467 ;; This function calls:
   468 ;;		_SYSTEM_Initialize
   469 ;;		_delay_ms
   470 ;; This function is called by:
   471 ;;		Startup code after reset
   472 ;; This function uses a non-reentrant model
   473 ;;
   474                           
   475                           	psect	text0
   476  00008E                     __ptext0:
   477                           	opt stack 0
   478  00008E                     _main:
   479                           	opt stack 26
   480                           
   481                           ;main.c: 66: SYSTEM_Initialize();
   482                           
   483                           ;incstack = 0
   484  00008E  ECFF  F001         	call	_SYSTEM_Initialize	;wreg free
   485                           
   486                           ;main.c: 85: (INTCONbits.GIE = 1);
   487  000092  8EF2               	bsf	intcon,7,c	;volatile
   488                           
   489                           ;main.c: 88: (INTCONbits.PEIE = 1);
   490  000094  8CF2               	bsf	intcon,6,c	;volatile
   491                           
   492                           ;main.c: 99: do { TRISC0 = 0; } while(0);
   493  000096  9094               	bcf	3988,0,c	;volatile
   494                           
   495                           ;main.c: 100: do { TRISC1 = 0; } while(0);
   496  000098  9294               	bcf	3988,1,c	;volatile
   497                           
   498                           ;main.c: 101: int delay = 10;
   499  00009A  0E00               	movlw	0
   500  00009C  6E24               	movwf	main@delay+1,c
   501  00009E  0E0A               	movlw	10
   502  0000A0  6E23               	movwf	main@delay,c
   503                           
   504                           ;main.c: 102: for (int i = 0; i < 2; i++) {
   505  0000A2  0E00               	movlw	0
   506  0000A4  6E22               	movwf	main@i+1,c
   507  0000A6  0E00               	movlw	0
   508  0000A8  6E21               	movwf	main@i,c
   509  0000AA                     l1423:
   510  0000AA  BE22               	btfsc	main@i+1,7,c
   511  0000AC  D006               	goto	l166
   512  0000AE  5022               	movf	main@i+1,w,c
   513  0000B0  E15D               	bnz	l207
   514  0000B2  0E02               	movlw	2
   515  0000B4  5C21               	subwf	main@i,w,c
   516  0000B6  B0D8               	btfsc	status,0,c
   517  0000B8  D059               	goto	l207
   518  0000BA                     l166:
   519  0000BA  868C               	bsf	3980,3,c	;volatile
   520                           
   521                           ;main.c: 105: delay_ms(delay);
   522  0000BC  C023  F01A         	movff	main@delay,delay_ms@ms
   523  0000C0  C024  F01B         	movff	main@delay+1,delay_ms@ms+1
   524  0000C4  EC56  F001         	call	_delay_ms	;wreg free
   525                           
   526                           ;main.c: 106: do { LATD3 = 0; } while(0);
   527  0000C8  968C               	bcf	3980,3,c	;volatile
   528                           
   529                           ;main.c: 107: do { LATD2 = 1; } while(0);
   530  0000CA  848C               	bsf	3980,2,c	;volatile
   531                           
   532                           ;main.c: 108: delay_ms(delay);
   533  0000CC  C023  F01A         	movff	main@delay,delay_ms@ms
   534  0000D0  C024  F01B         	movff	main@delay+1,delay_ms@ms+1
   535  0000D4  EC56  F001         	call	_delay_ms	;wreg free
   536                           
   537                           ;main.c: 109: do { LATD2 = 0; } while(0);
   538  0000D8  948C               	bcf	3980,2,c	;volatile
   539                           
   540                           ;main.c: 110: do { LATD1 = 1; } while(0);
   541  0000DA  828C               	bsf	3980,1,c	;volatile
   542                           
   543                           ;main.c: 111: delay_ms(delay);
   544  0000DC  C023  F01A         	movff	main@delay,delay_ms@ms
   545  0000E0  C024  F01B         	movff	main@delay+1,delay_ms@ms+1
   546  0000E4  EC56  F001         	call	_delay_ms	;wreg free
   547                           
   548                           ;main.c: 112: do { LATD1 = 0; } while(0);
   549  0000E8  928C               	bcf	3980,1,c	;volatile
   550                           
   551                           ;main.c: 113: do { LATD0 = 1; } while(0);
   552  0000EA  808C               	bsf	3980,0,c	;volatile
   553                           
   554                           ;main.c: 114: delay_ms(delay);
   555  0000EC  C023  F01A         	movff	main@delay,delay_ms@ms
   556  0000F0  C024  F01B         	movff	main@delay+1,delay_ms@ms+1
   557  0000F4  EC56  F001         	call	_delay_ms	;wreg free
   558                           
   559                           ;main.c: 115: do { LATD0 = 0; } while(0);
   560  0000F8  908C               	bcf	3980,0,c	;volatile
   561                           
   562                           ;main.c: 116: do { LATC2 = 1; } while(0);
   563  0000FA  848B               	bsf	3979,2,c	;volatile
   564                           
   565                           ;main.c: 117: delay_ms(delay);
   566  0000FC  C023  F01A         	movff	main@delay,delay_ms@ms
   567  000100  C024  F01B         	movff	main@delay+1,delay_ms@ms+1
   568  000104  EC56  F001         	call	_delay_ms	;wreg free
   569                           
   570                           ;main.c: 118: do { LATC2 = 0; } while(0);
   571  000108  948B               	bcf	3979,2,c	;volatile
   572                           
   573                           ;main.c: 119: do { LATC1 = 1; } while(0);
   574  00010A  828B               	bsf	3979,1,c	;volatile
   575                           
   576                           ;main.c: 120: delay_ms(delay);
   577  00010C  C023  F01A         	movff	main@delay,delay_ms@ms
   578  000110  C024  F01B         	movff	main@delay+1,delay_ms@ms+1
   579  000114  EC56  F001         	call	_delay_ms	;wreg free
   580                           
   581                           ;main.c: 121: do { LATC1 = 0; } while(0);
   582  000118  928B               	bcf	3979,1,c	;volatile
   583                           
   584                           ;main.c: 122: do { LATC0 = 1; } while(0);
   585  00011A  808B               	bsf	3979,0,c	;volatile
   586                           
   587                           ;main.c: 123: delay_ms(delay);
   588  00011C  C023  F01A         	movff	main@delay,delay_ms@ms
   589  000120  C024  F01B         	movff	main@delay+1,delay_ms@ms+1
   590  000124  EC56  F001         	call	_delay_ms	;wreg free
   591                           
   592                           ;main.c: 124: do { LATC0 = 0; } while(0);
   593  000128  908B               	bcf	3979,0,c	;volatile
   594                           
   595                           ;main.c: 125: do { LATB0 = 1; } while(0);
   596  00012A  808A               	bsf	3978,0,c	;volatile
   597                           
   598                           ;main.c: 126: delay_ms(delay);
   599  00012C  C023  F01A         	movff	main@delay,delay_ms@ms
   600  000130  C024  F01B         	movff	main@delay+1,delay_ms@ms+1
   601  000134  EC56  F001         	call	_delay_ms	;wreg free
   602                           
   603                           ;main.c: 127: do { LATB0 = 0; } while(0);
   604  000138  908A               	bcf	3978,0,c	;volatile
   605                           
   606                           ;main.c: 128: do { LATB2 = 1; } while(0);
   607  00013A  848A               	bsf	3978,2,c	;volatile
   608                           
   609                           ;main.c: 129: delay_ms(delay);
   610  00013C  C023  F01A         	movff	main@delay,delay_ms@ms
   611  000140  C024  F01B         	movff	main@delay+1,delay_ms@ms+1
   612  000144  EC56  F001         	call	_delay_ms	;wreg free
   613                           
   614                           ;main.c: 130: do { LATB2 = 0; } while(0);
   615  000148  948A               	bcf	3978,2,c	;volatile
   616                           
   617                           ;main.c: 131: do { LATB3 = 1; } while(0);
   618  00014A  868A               	bsf	3978,3,c	;volatile
   619                           
   620                           ;main.c: 132: delay_ms(delay);
   621  00014C  C023  F01A         	movff	main@delay,delay_ms@ms
   622  000150  C024  F01B         	movff	main@delay+1,delay_ms@ms+1
   623  000154  EC56  F001         	call	_delay_ms	;wreg free
   624                           
   625                           ;main.c: 133: do { LATB3 = 0; } while(0);
   626  000158  968A               	bcf	3978,3,c	;volatile
   627                           
   628                           ;main.c: 134: delay_ms(delay);
   629  00015A  C023  F01A         	movff	main@delay,delay_ms@ms
   630  00015E  C024  F01B         	movff	main@delay+1,delay_ms@ms+1
   631  000162  EC56  F001         	call	_delay_ms	;wreg free
   632  000166  4A21               	infsnz	main@i,f,c
   633  000168  2A22               	incf	main@i+1,f,c
   634  00016A  D79F               	goto	l1423
   635  00016C                     l207:
   636  00016C  868C               	bsf	3980,3,c	;volatile
   637                           
   638                           ;main.c: 142: delay_ms(1000);
   639  00016E  0E03               	movlw	3
   640  000170  6E1B               	movwf	delay_ms@ms+1,c
   641  000172  0EE8               	movlw	232
   642  000174  6E1A               	movwf	delay_ms@ms,c
   643  000176  EC56  F001         	call	_delay_ms	;wreg free
   644                           
   645                           ;main.c: 143: do { LATD3 = 0; } while(0);
   646  00017A  968C               	bcf	3980,3,c	;volatile
   647                           
   648                           ;main.c: 144: delay_ms(1000);
   649  00017C  0E03               	movlw	3
   650  00017E  6E1B               	movwf	delay_ms@ms+1,c
   651  000180  0EE8               	movlw	232
   652  000182  6E1A               	movwf	delay_ms@ms,c
   653  000184  EC56  F001         	call	_delay_ms	;wreg free
   654                           
   655                           ;main.c: 151: do { LATD1 = 1; } while(0);
   656  000188  828C               	bsf	3980,1,c	;volatile
   657                           
   658                           ;main.c: 153: do { LATD0 = 1; } while(0);
   659  00018A  808C               	bsf	3980,0,c	;volatile
   660                           
   661                           ;main.c: 155: do { LATC2 = 1; } while(0);
   662  00018C  848B               	bsf	3979,2,c	;volatile
   663                           
   664                           ;main.c: 156: delay_ms(1000);
   665  00018E  0E03               	movlw	3
   666  000190  6E1B               	movwf	delay_ms@ms+1,c
   667  000192  0EE8               	movlw	232
   668  000194  6E1A               	movwf	delay_ms@ms,c
   669  000196  EC56  F001         	call	_delay_ms	;wreg free
   670                           
   671                           ;main.c: 157: do { LATD3 = 0; } while(0);
   672  00019A  968C               	bcf	3980,3,c	;volatile
   673                           
   674                           ;main.c: 158: do { LATD2 = 0; } while(0);
   675  00019C  948C               	bcf	3980,2,c	;volatile
   676                           
   677                           ;main.c: 159: do { LATD1 = 0; } while(0);
   678  00019E  928C               	bcf	3980,1,c	;volatile
   679                           
   680                           ;main.c: 160: do { LATD0 = 0; } while(0);
   681  0001A0  908C               	bcf	3980,0,c	;volatile
   682                           
   683                           ;main.c: 161: do { LATC2 = 0; } while(0);
   684  0001A2  948B               	bcf	3979,2,c	;volatile
   685                           
   686                           ;main.c: 162: do { LATB0 = 0; } while(0);
   687  0001A4  908A               	bcf	3978,0,c	;volatile
   688  0001A6  D7E2               	goto	l207
   689  0001A8                     __end_of_main:
   690                           	opt stack 0
   691                           tblptru	equ	0xFF8
   692                           tblptrh	equ	0xFF7
   693                           tblptrl	equ	0xFF6
   694                           tablat	equ	0xFF5
   695                           intcon	equ	0xFF2
   696                           postinc0	equ	0xFEE
   697                           wreg	equ	0xFE8
   698                           postdec1	equ	0xFE5
   699                           fsr1l	equ	0xFE1
   700                           status	equ	0xFD8
   701                           
   702 ;; *************** function _delay_ms *****************
   703 ;; Defined at:
   704 ;;		line 48 in file "main.c"
   705 ;; Parameters:    Size  Location     Type
   706 ;;  ms              2   25[COMRAM] int 
   707 ;; Auto vars:     Size  Location     Type
   708 ;;  i               2   30[COMRAM] int 
   709 ;;  n               2   28[COMRAM] int 
   710 ;; Return value:  Size  Location     Type
   711 ;;                  1    wreg      void 
   712 ;; Registers used:
   713 ;;		wreg, status,2, status,0, cstack
   714 ;; Tracked objects:
   715 ;;		On entry : 0/0
   716 ;;		On exit  : 0/0
   717 ;;		Unchanged: 0/0
   718 ;; Data sizes:     COMRAM   BANK0   BANK1   BANK2   BANK3   BANK4   BANK5   BANK6   BANK7   BANK8   BANK9  BANK10  BANK1
      +1  BANK12  BANK13  BANK14
   719 ;;      Params:         2       0       0       0       0       0       0       0       0       0       0       0       
      +0       0       0       0
   720 ;;      Locals:         4       0       0       0       0       0       0       0       0       0       0       0       
      +0       0       0       0
   721 ;;      Temps:          1       0       0       0       0       0       0       0       0       0       0       0       
      +0       0       0       0
   722 ;;      Totals:         7       0       0       0       0       0       0       0       0       0       0       0       
      +0       0       0       0
   723 ;;Total ram usage:        7 bytes
   724 ;; Hardware stack levels used:    1
   725 ;; Hardware stack levels required when called:    4
   726 ;; This function calls:
   727 ;;		___awdiv
   728 ;; This function is called by:
   729 ;;		_main
   730 ;; This function uses a non-reentrant model
   731 ;;
   732                           
   733                           	psect	text1
   734  0002AC                     __ptext1:
   735                           	opt stack 0
   736  0002AC                     _delay_ms:
   737                           	opt stack 26
   738                           
   739                           ;main.c: 49: if (ms < 10) {
   740                           
   741                           ;incstack = 0
   742  0002AC  BE1B               	btfsc	delay_ms@ms+1,7,c
   743  0002AE  D006               	goto	l1399
   744  0002B0  501B               	movf	delay_ms@ms+1,w,c
   745  0002B2  E10C               	bnz	l1401
   746  0002B4  0E0A               	movlw	10
   747  0002B6  5C1A               	subwf	delay_ms@ms,w,c
   748  0002B8  B0D8               	btfsc	status,0,c
   749  0002BA  D008               	goto	l1401
   750  0002BC                     l1399:
   751                           
   752                           ;main.c: 50: _delay((unsigned long)((10)*(16000000/4000.0)));
   753  0002BC  0E34               	movlw	52
   754  0002BE  6E1C               	movwf	??_delay_ms& (0+255),c
   755  0002C0  0EF2               	movlw	242
   756  0002C2                     u427:
   757  0002C2  2EE8               	decfsz	wreg,f,c
   758  0002C4  D7FE               	goto	u427
   759  0002C6  2E1C               	decfsz	??_delay_ms& (0+255),f,c
   760  0002C8  D7FC               	goto	u427
   761                           
   762                           ;main.c: 51: } else {
   763  0002CA  0012               	return	
   764  0002CC                     l1401:
   765                           
   766                           ;main.c: 52: int n = ms / 10;
   767  0002CC  C01A  F012         	movff	delay_ms@ms,___awdiv@dividend
   768  0002D0  C01B  F013         	movff	delay_ms@ms+1,___awdiv@dividend+1
   769  0002D4  0E00               	movlw	0
   770  0002D6  6E15               	movwf	___awdiv@divisor+1,c
   771  0002D8  0E0A               	movlw	10
   772  0002DA  6E14               	movwf	___awdiv@divisor,c
   773  0002DC  ECD4  F000         	call	___awdiv	;wreg free
   774  0002E0  C012  F01D         	movff	?___awdiv,delay_ms@n
   775  0002E4  C013  F01E         	movff	?___awdiv+1,delay_ms@n+1
   776                           
   777                           ;main.c: 53: for (int i = 0; i < n; i++) {
   778  0002E8  0E00               	movlw	0
   779  0002EA  6E20               	movwf	delay_ms@i+1,c
   780  0002EC  0E00               	movlw	0
   781  0002EE  6E1F               	movwf	delay_ms@i,c
   782  0002F0  D009               	goto	l154
   783  0002F2                     l1405:
   784                           
   785                           ;main.c: 54: _delay((unsigned long)((10)*(16000000/4000.0)));
   786  0002F2  0E34               	movlw	52
   787  0002F4  6E1C               	movwf	??_delay_ms& (0+255),c
   788  0002F6  0EF2               	movlw	242
   789  0002F8                     u437:
   790  0002F8  2EE8               	decfsz	wreg,f,c
   791  0002FA  D7FE               	goto	u437
   792  0002FC  2E1C               	decfsz	??_delay_ms& (0+255),f,c
   793  0002FE  D7FC               	goto	u437
   794  000300  4A1F               	infsnz	delay_ms@i,f,c
   795  000302  2A20               	incf	delay_ms@i+1,f,c
   796  000304                     l154:
   797  000304  501D               	movf	delay_ms@n,w,c
   798  000306  5C1F               	subwf	delay_ms@i,w,c
   799  000308  5020               	movf	delay_ms@i+1,w,c
   800  00030A  0A80               	xorlw	128
   801  00030C  6E1C               	movwf	??_delay_ms& (0+255),c
   802  00030E  501E               	movf	delay_ms@n+1,w,c
   803  000310  0A80               	xorlw	128
   804  000312  581C               	subwfb	??_delay_ms& (0+255),w,c
   805  000314  B0D8               	btfsc	status,0,c
   806  000316  0012               	return	
   807  000318  D7EC               	goto	l1405
   808  00031A                     __end_of_delay_ms:
   809                           	opt stack 0
   810                           tblptru	equ	0xFF8
   811                           tblptrh	equ	0xFF7
   812                           tblptrl	equ	0xFF6
   813                           tablat	equ	0xFF5
   814                           intcon	equ	0xFF2
   815                           postinc0	equ	0xFEE
   816                           wreg	equ	0xFE8
   817                           postdec1	equ	0xFE5
   818                           fsr1l	equ	0xFE1
   819                           status	equ	0xFD8
   820                           
   821 ;; *************** function ___awdiv *****************
   822 ;; Defined at:
   823 ;;		line 8 in file "C:\Program Files (x86)\Microchip\xc8\v1.38\sources\common\awdiv.c"
   824 ;; Parameters:    Size  Location     Type
   825 ;;  dividend        2   17[COMRAM] int 
   826 ;;  divisor         2   19[COMRAM] int 
   827 ;; Auto vars:     Size  Location     Type
   828 ;;  quotient        2   23[COMRAM] int 
   829 ;;  sign            1   22[COMRAM] unsigned char 
   830 ;;  counter         1   21[COMRAM] unsigned char 
   831 ;; Return value:  Size  Location     Type
   832 ;;                  2   17[COMRAM] int 
   833 ;; Registers used:
   834 ;;		wreg, status,2, status,0
   835 ;; Tracked objects:
   836 ;;		On entry : 0/0
   837 ;;		On exit  : 0/0
   838 ;;		Unchanged: 0/0
   839 ;; Data sizes:     COMRAM   BANK0   BANK1   BANK2   BANK3   BANK4   BANK5   BANK6   BANK7   BANK8   BANK9  BANK10  BANK1
      +1  BANK12  BANK13  BANK14
   840 ;;      Params:         4       0       0       0       0       0       0       0       0       0       0       0       
      +0       0       0       0
   841 ;;      Locals:         4       0       0       0       0       0       0       0       0       0       0       0       
      +0       0       0       0
   842 ;;      Temps:          0       0       0       0       0       0       0       0       0       0       0       0       
      +0       0       0       0
   843 ;;      Totals:         8       0       0       0       0       0       0       0       0       0       0       0       
      +0       0       0       0
   844 ;;Total ram usage:        8 bytes
   845 ;; Hardware stack levels used:    1
   846 ;; Hardware stack levels required when called:    3
   847 ;; This function calls:
   848 ;;		Nothing
   849 ;; This function is called by:
   850 ;;		_delay_ms
   851 ;; This function uses a non-reentrant model
   852 ;;
   853                           
   854                           	psect	text2
   855  0001A8                     __ptext2:
   856                           	opt stack 0
   857  0001A8                     ___awdiv:
   858                           	opt stack 26
   859                           
   860                           ;incstack = 0
   861  0001A8  0E00               	movlw	0
   862  0001AA  6E17               	movwf	___awdiv@sign,c
   863  0001AC  AE15               	btfss	___awdiv@divisor+1,7,c
   864  0001AE  D006               	goto	l1361
   865  0001B0  6C14               	negf	___awdiv@divisor,c
   866  0001B2  1E15               	comf	___awdiv@divisor+1,f,c
   867  0001B4  B0D8               	btfsc	status,0,c
   868  0001B6  2A15               	incf	___awdiv@divisor+1,f,c
   869  0001B8  0E01               	movlw	1
   870  0001BA  6E17               	movwf	___awdiv@sign,c
   871  0001BC                     l1361:
   872  0001BC  AE13               	btfss	___awdiv@dividend+1,7,c
   873  0001BE  D006               	goto	l1367
   874  0001C0  6C12               	negf	___awdiv@dividend,c
   875  0001C2  1E13               	comf	___awdiv@dividend+1,f,c
   876  0001C4  B0D8               	btfsc	status,0,c
   877  0001C6  2A13               	incf	___awdiv@dividend+1,f,c
   878  0001C8  0E01               	movlw	1
   879  0001CA  1A17               	xorwf	___awdiv@sign,f,c
   880  0001CC                     l1367:
   881  0001CC  0E00               	movlw	0
   882  0001CE  6E19               	movwf	___awdiv@quotient+1,c
   883  0001D0  0E00               	movlw	0
   884  0001D2  6E18               	movwf	___awdiv@quotient,c
   885  0001D4  5014               	movf	___awdiv@divisor,w,c
   886  0001D6  1015               	iorwf	___awdiv@divisor+1,w,c
   887  0001D8  B4D8               	btfsc	status,2,c
   888  0001DA  D01C               	goto	l1389
   889  0001DC  0E01               	movlw	1
   890  0001DE  6E16               	movwf	___awdiv@counter,c
   891  0001E0  D004               	goto	l1375
   892  0001E2                     l1373:
   893  0001E2  90D8               	bcf	status,0,c
   894  0001E4  3614               	rlcf	___awdiv@divisor,f,c
   895  0001E6  3615               	rlcf	___awdiv@divisor+1,f,c
   896  0001E8  2A16               	incf	___awdiv@counter,f,c
   897  0001EA                     l1375:
   898  0001EA  AE15               	btfss	___awdiv@divisor+1,7,c
   899  0001EC  D7FA               	goto	l1373
   900  0001EE                     l1377:
   901  0001EE  90D8               	bcf	status,0,c
   902  0001F0  3618               	rlcf	___awdiv@quotient,f,c
   903  0001F2  3619               	rlcf	___awdiv@quotient+1,f,c
   904  0001F4  5014               	movf	___awdiv@divisor,w,c
   905  0001F6  5C12               	subwf	___awdiv@dividend,w,c
   906  0001F8  5015               	movf	___awdiv@divisor+1,w,c
   907  0001FA  5813               	subwfb	___awdiv@dividend+1,w,c
   908  0001FC  A0D8               	btfss	status,0,c
   909  0001FE  D005               	goto	l1385
   910  000200  5014               	movf	___awdiv@divisor,w,c
   911  000202  5E12               	subwf	___awdiv@dividend,f,c
   912  000204  5015               	movf	___awdiv@divisor+1,w,c
   913  000206  5A13               	subwfb	___awdiv@dividend+1,f,c
   914  000208  8018               	bsf	___awdiv@quotient,0,c
   915  00020A                     l1385:
   916  00020A  90D8               	bcf	status,0,c
   917  00020C  3215               	rrcf	___awdiv@divisor+1,f,c
   918  00020E  3214               	rrcf	___awdiv@divisor,f,c
   919  000210  2E16               	decfsz	___awdiv@counter,f,c
   920  000212  D7ED               	goto	l1377
   921  000214                     l1389:
   922  000214  5017               	movf	___awdiv@sign,w,c
   923  000216  B4D8               	btfsc	status,2,c
   924  000218  D004               	goto	l1393
   925  00021A  6C18               	negf	___awdiv@quotient,c
   926  00021C  1E19               	comf	___awdiv@quotient+1,f,c
   927  00021E  B0D8               	btfsc	status,0,c
   928  000220  2A19               	incf	___awdiv@quotient+1,f,c
   929  000222                     l1393:
   930  000222  C018  F012         	movff	___awdiv@quotient,?___awdiv
   931  000226  C019  F013         	movff	___awdiv@quotient+1,?___awdiv+1
   932  00022A  0012               	return	
   933  00022C                     __end_of___awdiv:
   934                           	opt stack 0
   935                           tblptru	equ	0xFF8
   936                           tblptrh	equ	0xFF7
   937                           tblptrl	equ	0xFF6
   938                           tablat	equ	0xFF5
   939                           intcon	equ	0xFF2
   940                           postinc0	equ	0xFEE
   941                           wreg	equ	0xFE8
   942                           postdec1	equ	0xFE5
   943                           fsr1l	equ	0xFE1
   944                           status	equ	0xFD8
   945                           
   946 ;; *************** function _SYSTEM_Initialize *****************
   947 ;; Defined at:
   948 ;;		line 111 in file "mcc_generated_files/mcc.c"
   949 ;; Parameters:    Size  Location     Type
   950 ;;		None
   951 ;; Auto vars:     Size  Location     Type
   952 ;;		None
   953 ;; Return value:  Size  Location     Type
   954 ;;                  1    wreg      void 
   955 ;; Registers used:
   956 ;;		wreg, status,2, cstack
   957 ;; Tracked objects:
   958 ;;		On entry : 0/0
   959 ;;		On exit  : 0/0
   960 ;;		Unchanged: 0/0
   961 ;; Data sizes:     COMRAM   BANK0   BANK1   BANK2   BANK3   BANK4   BANK5   BANK6   BANK7   BANK8   BANK9  BANK10  BANK1
      +1  BANK12  BANK13  BANK14
   962 ;;      Params:         0       0       0       0       0       0       0       0       0       0       0       0       
      +0       0       0       0
   963 ;;      Locals:         0       0       0       0       0       0       0       0       0       0       0       0       
      +0       0       0       0
   964 ;;      Temps:          0       0       0       0       0       0       0       0       0       0       0       0       
      +0       0       0       0
   965 ;;      Totals:         0       0       0       0       0       0       0       0       0       0       0       0       
      +0       0       0       0
   966 ;;Total ram usage:        0 bytes
   967 ;; Hardware stack levels used:    1
   968 ;; Hardware stack levels required when called:    4
   969 ;; This function calls:
   970 ;;		_EUSART1_Initialize
   971 ;;		_EUSART2_Initialize
   972 ;;		_I2C_Initialize
   973 ;;		_INTERRUPT_Initialize
   974 ;;		_OSCILLATOR_Initialize
   975 ;;		_PIN_MANAGER_Initialize
   976 ;; This function is called by:
   977 ;;		_main
   978 ;; This function uses a non-reentrant model
   979 ;;
   980                           
   981                           	psect	text3
   982  0003FE                     __ptext3:
   983                           	opt stack 0
   984  0003FE                     _SYSTEM_Initialize:
   985                           	opt stack 26
   986                           
   987                           ;mcc.c: 114: INTERRUPT_Initialize();
   988                           
   989                           ;incstack = 0
   990  0003FE  EC38  F002         	call	_INTERRUPT_Initialize	;wreg free
   991                           
   992                           ;mcc.c: 115: PIN_MANAGER_Initialize();
   993  000402  ECD2  F001         	call	_PIN_MANAGER_Initialize	;wreg free
   994                           
   995                           ;mcc.c: 116: OSCILLATOR_Initialize();
   996  000406  EC2F  F002         	call	_OSCILLATOR_Initialize	;wreg free
   997                           
   998                           ;mcc.c: 117: I2C_Initialize();
   999  00040A  EC0C  F002         	call	_I2C_Initialize	;wreg free
  1000                           
  1001                           ;mcc.c: 118: EUSART1_Initialize();
  1002  00040E  EC24  F002         	call	_EUSART1_Initialize	;wreg free
  1003                           
  1004                           ;mcc.c: 119: EUSART2_Initialize();
  1005  000412  EC19  F002         	call	_EUSART2_Initialize	;wreg free
  1006  000416  0012               	return		;funcret
  1007  000418                     __end_of_SYSTEM_Initialize:
  1008                           	opt stack 0
  1009                           tblptru	equ	0xFF8
  1010                           tblptrh	equ	0xFF7
  1011                           tblptrl	equ	0xFF6
  1012                           tablat	equ	0xFF5
  1013                           intcon	equ	0xFF2
  1014                           postinc0	equ	0xFEE
  1015                           wreg	equ	0xFE8
  1016                           postdec1	equ	0xFE5
  1017                           fsr1l	equ	0xFE1
  1018                           status	equ	0xFD8
  1019                           
  1020 ;; *************** function _PIN_MANAGER_Initialize *****************
  1021 ;; Defined at:
  1022 ;;		line 49 in file "mcc_generated_files/pin_manager.c"
  1023 ;; Parameters:    Size  Location     Type
  1024 ;;		None
  1025 ;; Auto vars:     Size  Location     Type
  1026 ;;		None
  1027 ;; Return value:  Size  Location     Type
  1028 ;;                  1    wreg      void 
  1029 ;; Registers used:
  1030 ;;		wreg, status,2
  1031 ;; Tracked objects:
  1032 ;;		On entry : 0/0
  1033 ;;		On exit  : 0/0
  1034 ;;		Unchanged: 0/0
  1035 ;; Data sizes:     COMRAM   BANK0   BANK1   BANK2   BANK3   BANK4   BANK5   BANK6   BANK7   BANK8   BANK9  BANK10  BANK1
      +1  BANK12  BANK13  BANK14
  1036 ;;      Params:         0       0       0       0       0       0       0       0       0       0       0       0       
      +0       0       0       0
  1037 ;;      Locals:         0       0       0       0       0       0       0       0       0       0       0       0       
      +0       0       0       0
  1038 ;;      Temps:          0       0       0       0       0       0       0       0       0       0       0       0       
      +0       0       0       0
  1039 ;;      Totals:         0       0       0       0       0       0       0       0       0       0       0       0       
      +0       0       0       0
  1040 ;;Total ram usage:        0 bytes
  1041 ;; Hardware stack levels used:    1
  1042 ;; Hardware stack levels required when called:    3
  1043 ;; This function calls:
  1044 ;;		Nothing
  1045 ;; This function is called by:
  1046 ;;		_SYSTEM_Initialize
  1047 ;; This function uses a non-reentrant model
  1048 ;;
  1049                           
  1050                           	psect	text4
  1051  0003A4                     __ptext4:
  1052                           	opt stack 0
  1053  0003A4                     _PIN_MANAGER_Initialize:
  1054                           	opt stack 26
  1055                           
  1056                           ;pin_manager.c: 51: LATB = 0x0;
  1057                           
  1058                           ;incstack = 0
  1059  0003A4  0E00               	movlw	0
  1060  0003A6  6E8A               	movwf	3978,c	;volatile
  1061                           
  1062                           ;pin_manager.c: 52: LATA = 0x0;
  1063  0003A8  0E00               	movlw	0
  1064  0003AA  6E89               	movwf	3977,c	;volatile
  1065                           
  1066                           ;pin_manager.c: 53: LATE = 0x0;
  1067  0003AC  0E00               	movlw	0
  1068  0003AE  6E8D               	movwf	3981,c	;volatile
  1069                           
  1070                           ;pin_manager.c: 54: LATD = 0x0;
  1071  0003B0  0E00               	movlw	0
  1072  0003B2  6E8C               	movwf	3980,c	;volatile
  1073                           
  1074                           ;pin_manager.c: 55: LATC = 0x0;
  1075  0003B4  0E00               	movlw	0
  1076  0003B6  6E8B               	movwf	3979,c	;volatile
  1077                           
  1078                           ;pin_manager.c: 56: WPUB = 0xFF;
  1079  0003B8  010F               	movlb	15	; () banked
  1080  0003BA  695B               	setf	91,b	;volatile
  1081                           
  1082                           ;pin_manager.c: 57: TRISD = 0xB0;
  1083  0003BC  0EB0               	movlw	176
  1084  0003BE  6E95               	movwf	3989,c	;volatile
  1085                           
  1086                           ;pin_manager.c: 58: TRISE = 0x7;
  1087  0003C0  0E07               	movlw	7
  1088  0003C2  6E96               	movwf	3990,c	;volatile
  1089                           
  1090                           ;pin_manager.c: 59: TRISB = 0xF2;
  1091  0003C4  0EF2               	movlw	242
  1092  0003C6  6E93               	movwf	3987,c	;volatile
  1093                           
  1094                           ;pin_manager.c: 60: TRISC = 0xB8;
  1095  0003C8  0EB8               	movlw	184
  1096  0003CA  6E94               	movwf	3988,c	;volatile
  1097                           
  1098                           ;pin_manager.c: 61: TRISA = 0xEF;
  1099  0003CC  0EEF               	movlw	239
  1100  0003CE  6E92               	movwf	3986,c	;volatile
  1101                           
  1102                           ; BSR set to: 15
  1103  0003D0  0012               	return		;funcret
  1104  0003D2                     __end_of_PIN_MANAGER_Initialize:
  1105                           	opt stack 0
  1106                           tblptru	equ	0xFF8
  1107                           tblptrh	equ	0xFF7
  1108                           tblptrl	equ	0xFF6
  1109                           tablat	equ	0xFF5
  1110                           intcon	equ	0xFF2
  1111                           postinc0	equ	0xFEE
  1112                           wreg	equ	0xFE8
  1113                           postdec1	equ	0xFE5
  1114                           fsr1l	equ	0xFE1
  1115                           status	equ	0xFD8
  1116                           
  1117 ;; *************** function _OSCILLATOR_Initialize *****************
  1118 ;; Defined at:
  1119 ;;		line 122 in file "mcc_generated_files/mcc.c"
  1120 ;; Parameters:    Size  Location     Type
  1121 ;;		None
  1122 ;; Auto vars:     Size  Location     Type
  1123 ;;		None
  1124 ;; Return value:  Size  Location     Type
  1125 ;;                  1    wreg      void 
  1126 ;; Registers used:
  1127 ;;		wreg, status,2
  1128 ;; Tracked objects:
  1129 ;;		On entry : 0/0
  1130 ;;		On exit  : 0/0
  1131 ;;		Unchanged: 0/0
  1132 ;; Data sizes:     COMRAM   BANK0   BANK1   BANK2   BANK3   BANK4   BANK5   BANK6   BANK7   BANK8   BANK9  BANK10  BANK1
      +1  BANK12  BANK13  BANK14
  1133 ;;      Params:         0       0       0       0       0       0       0       0       0       0       0       0       
      +0       0       0       0
  1134 ;;      Locals:         0       0       0       0       0       0       0       0       0       0       0       0       
      +0       0       0       0
  1135 ;;      Temps:          0       0       0       0       0       0       0       0       0       0       0       0       
      +0       0       0       0
  1136 ;;      Totals:         0       0       0       0       0       0       0       0       0       0       0       0       
      +0       0       0       0
  1137 ;;Total ram usage:        0 bytes
  1138 ;; Hardware stack levels used:    1
  1139 ;; Hardware stack levels required when called:    3
  1140 ;; This function calls:
  1141 ;;		Nothing
  1142 ;; This function is called by:
  1143 ;;		_SYSTEM_Initialize
  1144 ;; This function uses a non-reentrant model
  1145 ;;
  1146                           
  1147                           	psect	text5
  1148  00045E                     __ptext5:
  1149                           	opt stack 0
  1150  00045E                     _OSCILLATOR_Initialize:
  1151                           	opt stack 26
  1152                           
  1153                           ;mcc.c: 125: OSCCON = 0x60;
  1154                           
  1155                           ; BSR set to: 15
  1156                           ;incstack = 0
  1157  00045E  0E60               	movlw	96
  1158  000460  6ED3               	movwf	4051,c	;volatile
  1159                           
  1160                           ;mcc.c: 127: OSCCON2 = 0x00;
  1161  000462  0E00               	movlw	0
  1162  000464  6ED2               	movwf	4050,c	;volatile
  1163                           
  1164                           ;mcc.c: 129: OSCTUNE = 0x00;
  1165  000466  0E00               	movlw	0
  1166  000468  6E9B               	movwf	3995,c	;volatile
  1167                           
  1168                           ;mcc.c: 131: REFOCON = 0x00;
  1169  00046A  0E00               	movlw	0
  1170  00046C  6E9A               	movwf	3994,c	;volatile
  1171  00046E  0012               	return		;funcret
  1172  000470                     __end_of_OSCILLATOR_Initialize:
  1173                           	opt stack 0
  1174                           tblptru	equ	0xFF8
  1175                           tblptrh	equ	0xFF7
  1176                           tblptrl	equ	0xFF6
  1177                           tablat	equ	0xFF5
  1178                           intcon	equ	0xFF2
  1179                           postinc0	equ	0xFEE
  1180                           wreg	equ	0xFE8
  1181                           postdec1	equ	0xFE5
  1182                           fsr1l	equ	0xFE1
  1183                           status	equ	0xFD8
  1184                           
  1185 ;; *************** function _INTERRUPT_Initialize *****************
  1186 ;; Defined at:
  1187 ;;		line 51 in file "mcc_generated_files/interrupt_manager.c"
  1188 ;; Parameters:    Size  Location     Type
  1189 ;;		None
  1190 ;; Auto vars:     Size  Location     Type
  1191 ;;		None
  1192 ;; Return value:  Size  Location     Type
  1193 ;;                  1    wreg      void 
  1194 ;; Registers used:
  1195 ;;		None
  1196 ;; Tracked objects:
  1197 ;;		On entry : 0/0
  1198 ;;		On exit  : 0/0
  1199 ;;		Unchanged: 0/0
  1200 ;; Data sizes:     COMRAM   BANK0   BANK1   BANK2   BANK3   BANK4   BANK5   BANK6   BANK7   BANK8   BANK9  BANK10  BANK1
      +1  BANK12  BANK13  BANK14
  1201 ;;      Params:         0       0       0       0       0       0       0       0       0       0       0       0       
      +0       0       0       0
  1202 ;;      Locals:         0       0       0       0       0       0       0       0       0       0       0       0       
      +0       0       0       0
  1203 ;;      Temps:          0       0       0       0       0       0       0       0       0       0       0       0       
      +0       0       0       0
  1204 ;;      Totals:         0       0       0       0       0       0       0       0       0       0       0       0       
      +0       0       0       0
  1205 ;;Total ram usage:        0 bytes
  1206 ;; Hardware stack levels used:    1
  1207 ;; Hardware stack levels required when called:    3
  1208 ;; This function calls:
  1209 ;;		Nothing
  1210 ;; This function is called by:
  1211 ;;		_SYSTEM_Initialize
  1212 ;; This function uses a non-reentrant model
  1213 ;;
  1214                           
  1215                           	psect	text6
  1216  000470                     __ptext6:
  1217                           	opt stack 0
  1218  000470                     _INTERRUPT_Initialize:
  1219                           	opt stack 26
  1220                           
  1221                           ;interrupt_manager.c: 54: IPEN = 0;
  1222                           
  1223                           ;incstack = 0
  1224  000470  9ED0               	bcf	4048,7,c	;volatile
  1225                           
  1226                           ;interrupt_manager.c: 59: IPR1bits.SSPIP = 0;
  1227  000472  969F               	bcf	3999,3,c	;volatile
  1228  000474  0012               	return		;funcret
  1229  000476                     __end_of_INTERRUPT_Initialize:
  1230                           	opt stack 0
  1231                           tblptru	equ	0xFF8
  1232                           tblptrh	equ	0xFF7
  1233                           tblptrl	equ	0xFF6
  1234                           tablat	equ	0xFF5
  1235                           intcon	equ	0xFF2
  1236                           postinc0	equ	0xFEE
  1237                           wreg	equ	0xFE8
  1238                           postdec1	equ	0xFE5
  1239                           fsr1l	equ	0xFE1
  1240                           status	equ	0xFD8
  1241                           
  1242 ;; *************** function _I2C_Initialize *****************
  1243 ;; Defined at:
  1244 ;;		line 78 in file "mcc_generated_files/i2c.c"
  1245 ;; Parameters:    Size  Location     Type
  1246 ;;		None
  1247 ;; Auto vars:     Size  Location     Type
  1248 ;;		None
  1249 ;; Return value:  Size  Location     Type
  1250 ;;                  1    wreg      void 
  1251 ;; Registers used:
  1252 ;;		wreg, status,2
  1253 ;; Tracked objects:
  1254 ;;		On entry : 0/0
  1255 ;;		On exit  : 0/0
  1256 ;;		Unchanged: 0/0
  1257 ;; Data sizes:     COMRAM   BANK0   BANK1   BANK2   BANK3   BANK4   BANK5   BANK6   BANK7   BANK8   BANK9  BANK10  BANK1
      +1  BANK12  BANK13  BANK14
  1258 ;;      Params:         0       0       0       0       0       0       0       0       0       0       0       0       
      +0       0       0       0
  1259 ;;      Locals:         0       0       0       0       0       0       0       0       0       0       0       0       
      +0       0       0       0
  1260 ;;      Temps:          0       0       0       0       0       0       0       0       0       0       0       0       
      +0       0       0       0
  1261 ;;      Totals:         0       0       0       0       0       0       0       0       0       0       0       0       
      +0       0       0       0
  1262 ;;Total ram usage:        0 bytes
  1263 ;; Hardware stack levels used:    1
  1264 ;; Hardware stack levels required when called:    3
  1265 ;; This function calls:
  1266 ;;		Nothing
  1267 ;; This function is called by:
  1268 ;;		_SYSTEM_Initialize
  1269 ;; This function uses a non-reentrant model
  1270 ;;
  1271                           
  1272                           	psect	text7
  1273  000418                     __ptext7:
  1274                           	opt stack 0
  1275  000418                     _I2C_Initialize:
  1276                           	opt stack 26
  1277                           
  1278                           ;i2c.c: 81: SSPSTAT = 0xC0;
  1279                           
  1280                           ;incstack = 0
  1281  000418  0EC0               	movlw	192
  1282  00041A  6EC7               	movwf	4039,c	;volatile
  1283                           
  1284                           ;i2c.c: 83: SSPCON1 = 0x26;
  1285  00041C  0E26               	movlw	38
  1286  00041E  6EC6               	movwf	4038,c	;volatile
  1287                           
  1288                           ;i2c.c: 85: SSPCON2 = 0x00;
  1289  000420  0E00               	movlw	0
  1290  000422  6EC5               	movwf	4037,c	;volatile
  1291                           
  1292                           ;i2c.c: 87: SSPADD = (0x7F << 1);
  1293  000424  0EFE               	movlw	254
  1294  000426  6EC8               	movwf	4040,c	;volatile
  1295                           
  1296                           ;i2c.c: 89: SSPADD = (0x08 << 1);
  1297  000428  0E10               	movlw	16
  1298  00042A  6EC8               	movwf	4040,c	;volatile
  1299                           
  1300                           ;i2c.c: 92: PIR1bits.SSPIF = 0;
  1301  00042C  969E               	bcf	3998,3,c	;volatile
  1302                           
  1303                           ;i2c.c: 94: PIE1bits.SSPIE = 1;
  1304  00042E  869D               	bsf	3997,3,c	;volatile
  1305  000430  0012               	return		;funcret
  1306  000432                     __end_of_I2C_Initialize:
  1307                           	opt stack 0
  1308                           tblptru	equ	0xFF8
  1309                           tblptrh	equ	0xFF7
  1310                           tblptrl	equ	0xFF6
  1311                           tablat	equ	0xFF5
  1312                           intcon	equ	0xFF2
  1313                           postinc0	equ	0xFEE
  1314                           wreg	equ	0xFE8
  1315                           postdec1	equ	0xFE5
  1316                           fsr1l	equ	0xFE1
  1317                           status	equ	0xFD8
  1318                           
  1319 ;; *************** function _EUSART2_Initialize *****************
  1320 ;; Defined at:
  1321 ;;		line 55 in file "mcc_generated_files/eusart2.c"
  1322 ;; Parameters:    Size  Location     Type
  1323 ;;		None
  1324 ;; Auto vars:     Size  Location     Type
  1325 ;;		None
  1326 ;; Return value:  Size  Location     Type
  1327 ;;                  1    wreg      void 
  1328 ;; Registers used:
  1329 ;;		wreg, status,2
  1330 ;; Tracked objects:
  1331 ;;		On entry : 0/0
  1332 ;;		On exit  : 0/0
  1333 ;;		Unchanged: 0/0
  1334 ;; Data sizes:     COMRAM   BANK0   BANK1   BANK2   BANK3   BANK4   BANK5   BANK6   BANK7   BANK8   BANK9  BANK10  BANK1
      +1  BANK12  BANK13  BANK14
  1335 ;;      Params:         0       0       0       0       0       0       0       0       0       0       0       0       
      +0       0       0       0
  1336 ;;      Locals:         0       0       0       0       0       0       0       0       0       0       0       0       
      +0       0       0       0
  1337 ;;      Temps:          0       0       0       0       0       0       0       0       0       0       0       0       
      +0       0       0       0
  1338 ;;      Totals:         0       0       0       0       0       0       0       0       0       0       0       0       
      +0       0       0       0
  1339 ;;Total ram usage:        0 bytes
  1340 ;; Hardware stack levels used:    1
  1341 ;; Hardware stack levels required when called:    3
  1342 ;; This function calls:
  1343 ;;		Nothing
  1344 ;; This function is called by:
  1345 ;;		_SYSTEM_Initialize
  1346 ;; This function uses a non-reentrant model
  1347 ;;
  1348                           
  1349                           	psect	text8
  1350  000432                     __ptext8:
  1351                           	opt stack 0
  1352  000432                     _EUSART2_Initialize:
  1353                           	opt stack 26
  1354                           
  1355                           ;eusart2.c: 60: BAUDCON2 = 0x08;
  1356                           
  1357                           ;incstack = 0
  1358  000432  0E08               	movlw	8
  1359  000434  6EB9               	movwf	4025,c	;volatile
  1360                           
  1361                           ;eusart2.c: 63: RCSTA2 = 0x90;
  1362  000436  0E90               	movlw	144
  1363  000438  6EA6               	movwf	4006,c	;volatile
  1364                           
  1365                           ;eusart2.c: 66: TXSTA2 = 0x26;
  1366  00043A  0E26               	movlw	38
  1367  00043C  6EBA               	movwf	4026,c	;volatile
  1368                           
  1369                           ;eusart2.c: 69: SPBRG2 = 0xA0;
  1370  00043E  0EA0               	movlw	160
  1371  000440  6E7B               	movwf	3963,c	;volatile
  1372                           
  1373                           ;eusart2.c: 72: SPBRGH2 = 0x01;
  1374  000442  0E01               	movlw	1
  1375  000444  6E7C               	movwf	3964,c	;volatile
  1376  000446  0012               	return		;funcret
  1377  000448                     __end_of_EUSART2_Initialize:
  1378                           	opt stack 0
  1379                           tblptru	equ	0xFF8
  1380                           tblptrh	equ	0xFF7
  1381                           tblptrl	equ	0xFF6
  1382                           tablat	equ	0xFF5
  1383                           intcon	equ	0xFF2
  1384                           postinc0	equ	0xFEE
  1385                           wreg	equ	0xFE8
  1386                           postdec1	equ	0xFE5
  1387                           fsr1l	equ	0xFE1
  1388                           status	equ	0xFD8
  1389                           
  1390 ;; *************** function _EUSART1_Initialize *****************
  1391 ;; Defined at:
  1392 ;;		line 55 in file "mcc_generated_files/eusart1.c"
  1393 ;; Parameters:    Size  Location     Type
  1394 ;;		None
  1395 ;; Auto vars:     Size  Location     Type
  1396 ;;		None
  1397 ;; Return value:  Size  Location     Type
  1398 ;;                  1    wreg      void 
  1399 ;; Registers used:
  1400 ;;		wreg, status,2
  1401 ;; Tracked objects:
  1402 ;;		On entry : 0/0
  1403 ;;		On exit  : 0/0
  1404 ;;		Unchanged: 0/0
  1405 ;; Data sizes:     COMRAM   BANK0   BANK1   BANK2   BANK3   BANK4   BANK5   BANK6   BANK7   BANK8   BANK9  BANK10  BANK1
      +1  BANK12  BANK13  BANK14
  1406 ;;      Params:         0       0       0       0       0       0       0       0       0       0       0       0       
      +0       0       0       0
  1407 ;;      Locals:         0       0       0       0       0       0       0       0       0       0       0       0       
      +0       0       0       0
  1408 ;;      Temps:          0       0       0       0       0       0       0       0       0       0       0       0       
      +0       0       0       0
  1409 ;;      Totals:         0       0       0       0       0       0       0       0       0       0       0       0       
      +0       0       0       0
  1410 ;;Total ram usage:        0 bytes
  1411 ;; Hardware stack levels used:    1
  1412 ;; Hardware stack levels required when called:    3
  1413 ;; This function calls:
  1414 ;;		Nothing
  1415 ;; This function is called by:
  1416 ;;		_SYSTEM_Initialize
  1417 ;; This function uses a non-reentrant model
  1418 ;;
  1419                           
  1420                           	psect	text9
  1421  000448                     __ptext9:
  1422                           	opt stack 0
  1423  000448                     _EUSART1_Initialize:
  1424                           	opt stack 26
  1425                           
  1426                           ;eusart1.c: 60: BAUDCON1 = 0x08;
  1427                           
  1428                           ;incstack = 0
  1429  000448  0E08               	movlw	8
  1430  00044A  6EA7               	movwf	4007,c	;volatile
  1431                           
  1432                           ;eusart1.c: 63: RCSTA1 = 0x90;
  1433  00044C  0E90               	movlw	144
  1434  00044E  6EAB               	movwf	4011,c	;volatile
  1435                           
  1436                           ;eusart1.c: 66: TXSTA1 = 0x24;
  1437  000450  0E24               	movlw	36
  1438  000452  6EAC               	movwf	4012,c	;volatile
  1439                           
  1440                           ;eusart1.c: 69: SPBRG1 = 0x03;
  1441  000454  0E03               	movlw	3
  1442  000456  6EAF               	movwf	4015,c	;volatile
  1443                           
  1444                           ;eusart1.c: 72: SPBRGH1 = 0x00;
  1445  000458  0E00               	movlw	0
  1446  00045A  6E7D               	movwf	3965,c	;volatile
  1447  00045C  0012               	return		;funcret
  1448  00045E                     __end_of_EUSART1_Initialize:
  1449                           	opt stack 0
  1450                           tblptru	equ	0xFF8
  1451                           tblptrh	equ	0xFF7
  1452                           tblptrl	equ	0xFF6
  1453                           tablat	equ	0xFF5
  1454                           intcon	equ	0xFF2
  1455                           postinc0	equ	0xFEE
  1456                           wreg	equ	0xFE8
  1457                           postdec1	equ	0xFE5
  1458                           fsr1l	equ	0xFE1
  1459                           status	equ	0xFD8
  1460                           
  1461 ;; *************** function _INTERRUPT_InterruptManager *****************
  1462 ;; Defined at:
  1463 ;;		line 63 in file "mcc_generated_files/interrupt_manager.c"
  1464 ;; Parameters:    Size  Location     Type
  1465 ;;		None
  1466 ;; Auto vars:     Size  Location     Type
  1467 ;;		None
  1468 ;; Return value:  Size  Location     Type
  1469 ;;                  1    wreg      void 
  1470 ;; Registers used:
  1471 ;;		wreg, status,2, status,0, cstack
  1472 ;; Tracked objects:
  1473 ;;		On entry : 0/0
  1474 ;;		On exit  : 0/0
  1475 ;;		Unchanged: 0/0
  1476 ;; Data sizes:     COMRAM   BANK0   BANK1   BANK2   BANK3   BANK4   BANK5   BANK6   BANK7   BANK8   BANK9  BANK10  BANK1
      +1  BANK12  BANK13  BANK14
  1477 ;;      Params:         0       0       0       0       0       0       0       0       0       0       0       0       
      +0       0       0       0
  1478 ;;      Locals:         0       0       0       0       0       0       0       0       0       0       0       0       
      +0       0       0       0
  1479 ;;      Temps:         14       0       0       0       0       0       0       0       0       0       0       0       
      +0       0       0       0
  1480 ;;      Totals:        14       0       0       0       0       0       0       0       0       0       0       0       
      +0       0       0       0
  1481 ;;Total ram usage:       14 bytes
  1482 ;; Hardware stack levels used:    1
  1483 ;; Hardware stack levels required when called:    2
  1484 ;; This function calls:
  1485 ;;		_I2C_ISR
  1486 ;; This function is called by:
  1487 ;;		Interrupt level 2
  1488 ;; This function uses a non-reentrant model
  1489 ;;
  1490                           
  1491                           	psect	intcode
  1492  000008                     __pintcode:
  1493                           	opt stack 0
  1494  000008                     _INTERRUPT_InterruptManager:
  1495                           	opt stack 26
  1496                           
  1497                           ;incstack = 0
  1498  000008  822E               	bsf	btemp,1,c	;set compiler interrupt flag (level 2)
  1499  00000A  CFFA F004          	movff	pclath,??_INTERRUPT_InterruptManager
  1500  00000E  CFFB F005          	movff	pclatu,??_INTERRUPT_InterruptManager+1
  1501  000012  CFE9 F006          	movff	fsr0l,??_INTERRUPT_InterruptManager+2
  1502  000016  CFEA F007          	movff	fsr0h,??_INTERRUPT_InterruptManager+3
  1503  00001A  CFE1 F008          	movff	fsr1l,??_INTERRUPT_InterruptManager+4
  1504  00001E  CFE2 F009          	movff	fsr1h,??_INTERRUPT_InterruptManager+5
  1505  000022  CFD9 F00A          	movff	fsr2l,??_INTERRUPT_InterruptManager+6
  1506  000026  CFDA F00B          	movff	fsr2h,??_INTERRUPT_InterruptManager+7
  1507  00002A  CFF3 F00C          	movff	prodl,??_INTERRUPT_InterruptManager+8
  1508  00002E  CFF4 F00D          	movff	prodh,??_INTERRUPT_InterruptManager+9
  1509  000032  CFF6 F00E          	movff	tblptrl,??_INTERRUPT_InterruptManager+10
  1510  000036  CFF7 F00F          	movff	tblptrh,??_INTERRUPT_InterruptManager+11
  1511  00003A  CFF8 F010          	movff	tblptru,??_INTERRUPT_InterruptManager+12
  1512  00003E  CFF5 F011          	movff	tablat,??_INTERRUPT_InterruptManager+13
  1513                           
  1514                           ;interrupt_manager.c: 66: if(INTCONbits.PEIE == 1 && PIE1bits.SSPIE == 1 && PIR1bits.SSP
      +                          IF == 1)
  1515  000042  BCF2               	btfsc	intcon,6,c	;volatile
  1516  000044  A69D               	btfss	3997,3,c	;volatile
  1517  000046  D003               	goto	i2l377
  1518  000048  B69E               	btfsc	3998,3,c	;volatile
  1519                           
  1520                           ;interrupt_manager.c: 67: {
  1521                           ;interrupt_manager.c: 68: I2C_ISR();
  1522  00004A  ECB3  F001         	call	_I2C_ISR	;wreg free
  1523  00004E                     i2l377:
  1524  00004E  C011  FFF5         	movff	??_INTERRUPT_InterruptManager+13,tablat
  1525  000052  C010  FFF8         	movff	??_INTERRUPT_InterruptManager+12,tblptru
  1526  000056  C00F  FFF7         	movff	??_INTERRUPT_InterruptManager+11,tblptrh
  1527  00005A  C00E  FFF6         	movff	??_INTERRUPT_InterruptManager+10,tblptrl
  1528  00005E  C00D  FFF4         	movff	??_INTERRUPT_InterruptManager+9,prodh
  1529  000062  C00C  FFF3         	movff	??_INTERRUPT_InterruptManager+8,prodl
  1530  000066  C00B  FFDA         	movff	??_INTERRUPT_InterruptManager+7,fsr2h
  1531  00006A  C00A  FFD9         	movff	??_INTERRUPT_InterruptManager+6,fsr2l
  1532  00006E  C009  FFE2         	movff	??_INTERRUPT_InterruptManager+5,fsr1h
  1533  000072  C008  FFE1         	movff	??_INTERRUPT_InterruptManager+4,fsr1l
  1534  000076  C007  FFEA         	movff	??_INTERRUPT_InterruptManager+3,fsr0h
  1535  00007A  C006  FFE9         	movff	??_INTERRUPT_InterruptManager+2,fsr0l
  1536  00007E  C005  FFFB         	movff	??_INTERRUPT_InterruptManager+1,pclatu
  1537  000082  C004  FFFA         	movff	??_INTERRUPT_InterruptManager,pclath
  1538  000086  922E               	bcf	btemp,1,c	;clear compiler interrupt flag (level 2)
  1539  000088  0011               	retfie		f
  1540  00008A                     __end_of_INTERRUPT_InterruptManager:
  1541                           	opt stack 0
  1542                           pclatu	equ	0xFFB
  1543                           pclath	equ	0xFFA
  1544                           tblptru	equ	0xFF8
  1545                           tblptrh	equ	0xFF7
  1546                           tblptrl	equ	0xFF6
  1547                           tablat	equ	0xFF5
  1548                           prodh	equ	0xFF4
  1549                           prodl	equ	0xFF3
  1550                           intcon	equ	0xFF2
  1551                           postinc0	equ	0xFEE
  1552                           fsr0h	equ	0xFEA
  1553                           fsr0l	equ	0xFE9
  1554                           wreg	equ	0xFE8
  1555                           postdec1	equ	0xFE5
  1556                           fsr1h	equ	0xFE2
  1557                           fsr1l	equ	0xFE1
  1558                           fsr2h	equ	0xFDA
  1559                           fsr2l	equ	0xFD9
  1560                           status	equ	0xFD8
  1561                           
  1562 ;; *************** function _I2C_ISR *****************
  1563 ;; Defined at:
  1564 ;;		line 98 in file "mcc_generated_files/i2c.c"
  1565 ;; Parameters:    Size  Location     Type
  1566 ;;		None
  1567 ;; Auto vars:     Size  Location     Type
  1568 ;;  i2c_data        1    2[COMRAM] unsigned char 
  1569 ;; Return value:  Size  Location     Type
  1570 ;;                  1    wreg      void 
  1571 ;; Registers used:
  1572 ;;		wreg, status,2, status,0, cstack
  1573 ;; Tracked objects:
  1574 ;;		On entry : 0/0
  1575 ;;		On exit  : 0/0
  1576 ;;		Unchanged: 0/0
  1577 ;; Data sizes:     COMRAM   BANK0   BANK1   BANK2   BANK3   BANK4   BANK5   BANK6   BANK7   BANK8   BANK9  BANK10  BANK1
      +1  BANK12  BANK13  BANK14
  1578 ;;      Params:         0       0       0       0       0       0       0       0       0       0       0       0       
      +0       0       0       0
  1579 ;;      Locals:         1       0       0       0       0       0       0       0       0       0       0       0       
      +0       0       0       0
  1580 ;;      Temps:          0       0       0       0       0       0       0       0       0       0       0       0       
      +0       0       0       0
  1581 ;;      Totals:         1       0       0       0       0       0       0       0       0       0       0       0       
      +0       0       0       0
  1582 ;;Total ram usage:        1 bytes
  1583 ;; Hardware stack levels used:    1
  1584 ;; Hardware stack levels required when called:    1
  1585 ;; This function calls:
  1586 ;;		_I2C_StatusCallback
  1587 ;; This function is called by:
  1588 ;;		_INTERRUPT_InterruptManager
  1589 ;; This function uses a non-reentrant model
  1590 ;;
  1591                           
  1592                           	psect	text11
  1593  000366                     __ptext11:
  1594                           	opt stack 0
  1595  000366                     _I2C_ISR:
  1596                           	opt stack 26
  1597                           
  1598                           ;i2c.c: 99: uint8_t i2c_data = 0x55;
  1599                           
  1600                           ;incstack = 0
  1601  000366  0E55               	movlw	85
  1602  000368  6E03               	movwf	I2C_ISR@i2c_data,c
  1603                           
  1604                           ;i2c.c: 105: PIR1bits.SSPIF = 0;
  1605  00036A  969E               	bcf	3998,3,c	;volatile
  1606                           
  1607                           ;i2c.c: 106: i2c_data = SSPBUF;
  1608  00036C  CFC9 F003          	movff	4041,I2C_ISR@i2c_data	;volatile
  1609                           
  1610                           ;i2c.c: 107: if (1 == SSPSTATbits.R_nW) {
  1611  000370  A4C7               	btfss	4039,2,c	;volatile
  1612  000372  D00B               	goto	i2l318
  1613                           
  1614                           ;i2c.c: 108: if ((1 == SSPSTATbits.D_nA) && (1 == PORTCbits.RC4)) {
  1615  000374  BAC7               	btfsc	4039,5,c	;volatile
  1616  000376  A882               	btfss	3970,4,c	;volatile
  1617  000378  D004               	goto	i2l1175
  1618                           
  1619                           ;i2c.c: 110: I2C_StatusCallback(I2C_SLAVE_READ_COMPLETED);
  1620  00037A  0E03               	movlw	3
  1621  00037C  ECE9  F001         	call	_I2C_StatusCallback
  1622                           
  1623                           ;i2c.c: 111: } else {
  1624  000380  D00F               	goto	i2l1181
  1625  000382                     i2l1175:
  1626                           
  1627                           ;i2c.c: 113: I2C_StatusCallback(I2C_SLAVE_READ_REQUEST);
  1628  000382  0E01               	movlw	1
  1629  000384  ECE9  F001         	call	_I2C_StatusCallback
  1630                           
  1631                           ;i2c.c: 114: }
  1632                           ;i2c.c: 115: } else if (0 == SSPSTATbits.D_nA) {
  1633  000388  D00B               	goto	i2l1181
  1634  00038A                     i2l318:
  1635  00038A  BAC7               	btfsc	4039,5,c	;volatile
  1636  00038C  D004               	goto	i2l322
  1637                           
  1638                           ;i2c.c: 119: I2C_StatusCallback(I2C_SLAVE_WRITE_REQUEST);
  1639  00038E  0E00               	movlw	0
  1640  000390  ECE9  F001         	call	_I2C_StatusCallback
  1641                           
  1642                           ;i2c.c: 120: } else {
  1643  000394  D005               	goto	i2l1181
  1644  000396                     i2l322:
  1645                           
  1646                           ;i2c.c: 121: I2C_slaveWriteData = i2c_data;
  1647  000396  C003  F02D         	movff	I2C_ISR@i2c_data,_I2C_slaveWriteData	;volatile
  1648                           
  1649                           ;i2c.c: 124: I2C_StatusCallback(I2C_SLAVE_WRITE_COMPLETED);
  1650  00039A  0E02               	movlw	2
  1651  00039C  ECE9  F001         	call	_I2C_StatusCallback
  1652  0003A0                     i2l1181:
  1653                           
  1654                           ;i2c.c: 125: }
  1655                           ;i2c.c: 127: SSPCON1bits.CKP = 1;
  1656  0003A0  88C6               	bsf	4038,4,c	;volatile
  1657  0003A2  0012               	return		;funcret
  1658  0003A4                     __end_of_I2C_ISR:
  1659                           	opt stack 0
  1660                           pclatu	equ	0xFFB
  1661                           pclath	equ	0xFFA
  1662                           tblptru	equ	0xFF8
  1663                           tblptrh	equ	0xFF7
  1664                           tblptrl	equ	0xFF6
  1665                           tablat	equ	0xFF5
  1666                           prodh	equ	0xFF4
  1667                           prodl	equ	0xFF3
  1668                           intcon	equ	0xFF2
  1669                           postinc0	equ	0xFEE
  1670                           fsr0h	equ	0xFEA
  1671                           fsr0l	equ	0xFE9
  1672                           wreg	equ	0xFE8
  1673                           postdec1	equ	0xFE5
  1674                           fsr1h	equ	0xFE2
  1675                           fsr1l	equ	0xFE1
  1676                           fsr2h	equ	0xFDA
  1677                           fsr2l	equ	0xFD9
  1678                           status	equ	0xFD8
  1679                           
  1680 ;; *************** function _I2C_StatusCallback *****************
  1681 ;; Defined at:
  1682 ;;		line 211 in file "mcc_generated_files/i2c.c"
  1683 ;; Parameters:    Size  Location     Type
  1684 ;;  i2c_bus_stat    1    wreg     enum E19105
  1685 ;; Auto vars:     Size  Location     Type
  1686 ;;  i2c_bus_stat    1    0[COMRAM] enum E19105
  1687 ;;  data            1    1[COMRAM] unsigned char 
  1688 ;; Return value:  Size  Location     Type
  1689 ;;                  1    wreg      void 
  1690 ;; Registers used:
  1691 ;;		wreg, status,2, status,0
  1692 ;; Tracked objects:
  1693 ;;		On entry : 0/0
  1694 ;;		On exit  : 0/0
  1695 ;;		Unchanged: 0/0
  1696 ;; Data sizes:     COMRAM   BANK0   BANK1   BANK2   BANK3   BANK4   BANK5   BANK6   BANK7   BANK8   BANK9  BANK10  BANK1
      +1  BANK12  BANK13  BANK14
  1697 ;;      Params:         0       0       0       0       0       0       0       0       0       0       0       0       
      +0       0       0       0
  1698 ;;      Locals:         2       0       0       0       0       0       0       0       0       0       0       0       
      +0       0       0       0
  1699 ;;      Temps:          0       0       0       0       0       0       0       0       0       0       0       0       
      +0       0       0       0
  1700 ;;      Totals:         2       0       0       0       0       0       0       0       0       0       0       0       
      +0       0       0       0
  1701 ;;Total ram usage:        2 bytes
  1702 ;; Hardware stack levels used:    1
  1703 ;; This function calls:
  1704 ;;		Nothing
  1705 ;; This function is called by:
  1706 ;;		_I2C_ISR
  1707 ;; This function uses a non-reentrant model
  1708 ;;
  1709                           
  1710                           	psect	text12
  1711  0003D2                     __ptext12:
  1712                           	opt stack 0
  1713  0003D2                     _I2C_StatusCallback:
  1714                           	opt stack 26
  1715                           
  1716                           ;incstack = 0
  1717                           ;I2C_StatusCallback@i2c_bus_state stored from wreg
  1718  0003D2  6E01               	movwf	I2C_StatusCallback@i2c_bus_state,c
  1719                           
  1720                           ;i2c.c: 212: uint8_t data;
  1721                           ;i2c.c: 213: switch (i2c_bus_state) {
  1722  0003D4  D008               	goto	i2l1071
  1723  0003D6                     i2l353:
  1724                           
  1725                           ;i2c.c: 223: data = I2C_slaveWriteData;
  1726  0003D6  C02D  F002         	movff	_I2C_slaveWriteData,I2C_StatusCallback@data	;volatile
  1727                           
  1728                           ;i2c.c: 228: break;
  1729  0003DA  0012               	return	
  1730  0003DC                     i2l1067:
  1731                           
  1732                           ;i2c.c: 231: data = 5;
  1733  0003DC  0E05               	movlw	5
  1734  0003DE  6E02               	movwf	I2C_StatusCallback@data,c
  1735                           
  1736                           ;i2c.c: 234: SSPBUF = data;
  1737  0003E0  C002  FFC9         	movff	I2C_StatusCallback@data,4041	;volatile
  1738                           
  1739                           ;i2c.c: 241: }
  1740                           
  1741                           ;i2c.c: 239: default:;
  1742                           
  1743                           ;i2c.c: 238: case I2C_SLAVE_READ_COMPLETED:
  1744                           
  1745                           ;i2c.c: 236: break;
  1746  0003E4  0012               	return	
  1747  0003E6                     i2l1071:
  1748  0003E6  5001               	movf	I2C_StatusCallback@i2c_bus_state,w,c
  1749                           
  1750                           ; Switch size 1, requested type "space"
  1751                           ; Number of cases is 4, Range of values is 0 to 3
  1752                           ; switch strategies available:
  1753                           ; Name         Instructions Cycles
  1754                           ; simple_byte           13     7 (average)
  1755                           ;	Chosen strategy is simple_byte
  1756  0003E8  0A00               	xorlw	0	; case 0
  1757  0003EA  B4D8               	btfsc	status,2,c
  1758  0003EC  0012               	return	
  1759  0003EE  0A01               	xorlw	1	; case 1
  1760  0003F0  B4D8               	btfsc	status,2,c
  1761  0003F2  D7F4               	goto	i2l1067
  1762  0003F4  0A03               	xorlw	3	; case 2
  1763  0003F6  B4D8               	btfsc	status,2,c
  1764  0003F8  D7EE               	goto	i2l353
  1765  0003FA  0A01               	xorlw	1	; case 3
  1766  0003FC  0012               	return	
  1767  0003FE                     __end_of_I2C_StatusCallback:
  1768                           	opt stack 0
  1769  0000                     pclatu	equ	0xFFB
  1770                           pclath	equ	0xFFA
  1771                           tblptru	equ	0xFF8
  1772                           tblptrh	equ	0xFF7
  1773                           tblptrl	equ	0xFF6
  1774                           tablat	equ	0xFF5
  1775                           prodh	equ	0xFF4
  1776                           prodl	equ	0xFF3
  1777                           intcon	equ	0xFF2
  1778                           postinc0	equ	0xFEE
  1779                           fsr0h	equ	0xFEA
  1780                           fsr0l	equ	0xFE9
  1781                           wreg	equ	0xFE8
  1782                           postdec1	equ	0xFE5
  1783                           fsr1h	equ	0xFE2
  1784                           fsr1l	equ	0xFE1
  1785                           fsr2h	equ	0xFDA
  1786                           fsr2l	equ	0xFD9
  1787                           status	equ	0xFD8
  1788                           pclatu	equ	0xFFB
  1789                           pclath	equ	0xFFA
  1790                           tblptru	equ	0xFF8
  1791                           tblptrh	equ	0xFF7
  1792                           tblptrl	equ	0xFF6
  1793                           tablat	equ	0xFF5
  1794                           prodh	equ	0xFF4
  1795                           prodl	equ	0xFF3
  1796                           intcon	equ	0xFF2
  1797                           postinc0	equ	0xFEE
  1798                           fsr0h	equ	0xFEA
  1799                           fsr0l	equ	0xFE9
  1800                           wreg	equ	0xFE8
  1801                           postdec1	equ	0xFE5
  1802                           fsr1h	equ	0xFE2
  1803                           fsr1l	equ	0xFE1
  1804                           fsr2h	equ	0xFDA
  1805                           fsr2l	equ	0xFD9
  1806                           status	equ	0xFD8
  1807                           
  1808                           	psect	rparam
  1809  0000                     pclatu	equ	0xFFB
  1810                           pclath	equ	0xFFA
  1811                           tblptru	equ	0xFF8
  1812                           tblptrh	equ	0xFF7
  1813                           tblptrl	equ	0xFF6
  1814                           tablat	equ	0xFF5
  1815                           prodh	equ	0xFF4
  1816                           prodl	equ	0xFF3
  1817                           intcon	equ	0xFF2
  1818                           postinc0	equ	0xFEE
  1819                           fsr0h	equ	0xFEA
  1820                           fsr0l	equ	0xFE9
  1821                           wreg	equ	0xFE8
  1822                           postdec1	equ	0xFE5
  1823                           fsr1h	equ	0xFE2
  1824                           fsr1l	equ	0xFE1
  1825                           fsr2h	equ	0xFDA
  1826                           fsr2l	equ	0xFD9
  1827                           status	equ	0xFD8
  1828                           
  1829                           	psect	temp
  1830  00002E                     btemp:
  1831                           	opt stack 0
  1832  00002E                     	ds	1
  1833  0000                     int$flags	set	btemp
  1834                           pclatu	equ	0xFFB
  1835                           pclath	equ	0xFFA
  1836                           tblptru	equ	0xFF8
  1837                           tblptrh	equ	0xFF7
  1838                           tblptrl	equ	0xFF6
  1839                           tablat	equ	0xFF5
  1840                           prodh	equ	0xFF4
  1841                           prodl	equ	0xFF3
  1842                           intcon	equ	0xFF2
  1843                           postinc0	equ	0xFEE
  1844                           fsr0h	equ	0xFEA
  1845                           fsr0l	equ	0xFE9
  1846                           wreg	equ	0xFE8
  1847                           postdec1	equ	0xFE5
  1848                           fsr1h	equ	0xFE2
  1849                           fsr1l	equ	0xFE1
  1850                           fsr2h	equ	0xFDA
  1851                           fsr2l	equ	0xFD9
  1852                           status	equ	0xFD8


Data Sizes:
    Strings     0
    Constant    0
    Data        129
    BSS         8
    Persistent  0
    Stack       0

Auto Spaces:
    Space          Size  Autos    Used
    COMRAM           94     36      45
    BANK0           160      0     128
    BANK1           256      0       0
    BANK2           256      0       0
    BANK3           256      0       0
    BANK4           256      0       0
    BANK5           256      0       0
    BANK6           256      0       0
    BANK7           256      0       0
    BANK8           256      0       0
    BANK9           256      0       0
    BANK10          256      0       0
    BANK11          256      0       0
    BANK12          256      0       0
    BANK13          256      0       0
    BANK14           65      0       0

Pointer List with Targets:

    None.

Critical Paths under _main in COMRAM

    _main->_delay_ms
    _delay_ms->___awdiv

Critical Paths under _INTERRUPT_InterruptManager in COMRAM

    _INTERRUPT_InterruptManager->_I2C_ISR
    _I2C_ISR->_I2C_StatusCallback

Critical Paths under _main in BANK0

    None.

Critical Paths under _INTERRUPT_InterruptManager in BANK0

    None.

Critical Paths under _main in BANK1

    None.

Critical Paths under _INTERRUPT_InterruptManager in BANK1

    None.

Critical Paths under _main in BANK2

    None.

Critical Paths under _INTERRUPT_InterruptManager in BANK2

    None.

Critical Paths under _main in BANK3

    None.

Critical Paths under _INTERRUPT_InterruptManager in BANK3

    None.

Critical Paths under _main in BANK4

    None.

Critical Paths under _INTERRUPT_InterruptManager in BANK4

    None.

Critical Paths under _main in BANK5

    None.

Critical Paths under _INTERRUPT_InterruptManager in BANK5

    None.

Critical Paths under _main in BANK6

    None.

Critical Paths under _INTERRUPT_InterruptManager in BANK6

    None.

Critical Paths under _main in BANK7

    None.

Critical Paths under _INTERRUPT_InterruptManager in BANK7

    None.

Critical Paths under _main in BANK8

    None.

Critical Paths under _INTERRUPT_InterruptManager in BANK8

    None.

Critical Paths under _main in BANK9

    None.

Critical Paths under _INTERRUPT_InterruptManager in BANK9

    None.

Critical Paths under _main in BANK10

    None.

Critical Paths under _INTERRUPT_InterruptManager in BANK10

    None.

Critical Paths under _main in BANK11

    None.

Critical Paths under _INTERRUPT_InterruptManager in BANK11

    None.

Critical Paths under _main in BANK12

    None.

Critical Paths under _INTERRUPT_InterruptManager in BANK12

    None.

Critical Paths under _main in BANK13

    None.

Critical Paths under _INTERRUPT_InterruptManager in BANK13

    None.

Critical Paths under _main in BANK14

    None.

Critical Paths under _INTERRUPT_InterruptManager in BANK14

    None.

Call Graph Tables:

 ---------------------------------------------------------------------------------
 (Depth) Function   	        Calls       Base Space   Used Autos Params    Refs
 ---------------------------------------------------------------------------------
 (0) _main                                                 4     4      0    1368
                                             32 COMRAM     4     4      0
                  _SYSTEM_Initialize
                           _delay_ms
 ---------------------------------------------------------------------------------
 (1) _delay_ms                                             7     5      2    1079
                                             25 COMRAM     7     5      2
                            ___awdiv
 ---------------------------------------------------------------------------------
 (2) ___awdiv                                              8     4      4     386
                                             17 COMRAM     8     4      4
 ---------------------------------------------------------------------------------
 (1) _SYSTEM_Initialize                                    0     0      0       0
                 _EUSART1_Initialize
                 _EUSART2_Initialize
                     _I2C_Initialize
               _INTERRUPT_Initialize
              _OSCILLATOR_Initialize
             _PIN_MANAGER_Initialize
 ---------------------------------------------------------------------------------
 (2) _PIN_MANAGER_Initialize                               0     0      0       0
 ---------------------------------------------------------------------------------
 (2) _OSCILLATOR_Initialize                                0     0      0       0
 ---------------------------------------------------------------------------------
 (2) _INTERRUPT_Initialize                                 0     0      0       0
 ---------------------------------------------------------------------------------
 (2) _I2C_Initialize                                       0     0      0       0
 ---------------------------------------------------------------------------------
 (2) _EUSART2_Initialize                                   0     0      0       0
 ---------------------------------------------------------------------------------
 (2) _EUSART1_Initialize                                   0     0      0       0
 ---------------------------------------------------------------------------------
 Estimated maximum stack depth 2
 ---------------------------------------------------------------------------------
 (Depth) Function   	        Calls       Base Space   Used Autos Params    Refs
 ---------------------------------------------------------------------------------
 (3) _INTERRUPT_InterruptManager                          14    14      0      45
                                              3 COMRAM    14    14      0
                            _I2C_ISR
 ---------------------------------------------------------------------------------
 (4) _I2C_ISR                                              1     1      0      45
                                              2 COMRAM     1     1      0
                 _I2C_StatusCallback
 ---------------------------------------------------------------------------------
 (5) _I2C_StatusCallback                                   2     2      0      30
                                              0 COMRAM     2     2      0
 ---------------------------------------------------------------------------------
 Estimated maximum stack depth 5
 ---------------------------------------------------------------------------------

 Call Graph Graphs:

 _main (ROOT)
   _SYSTEM_Initialize
     _EUSART1_Initialize
     _EUSART2_Initialize
     _I2C_Initialize
     _INTERRUPT_Initialize
     _OSCILLATOR_Initialize
     _PIN_MANAGER_Initialize
   _delay_ms
     ___awdiv

 _INTERRUPT_InterruptManager (ROOT)
   _I2C_ISR
     _I2C_StatusCallback

 Address spaces:
Name               Size   Autos  Total    Cost      Usage
BIGRAM             E40      0       0      35        0.0%
EEDATA             400      0       0       0        0.0%
BITBANK13          100      0       0      31        0.0%
BANK13             100      0       0      32        0.0%
BITBANK12          100      0       0      29        0.0%
BANK12             100      0       0      30        0.0%
BITBANK11          100      0       0      27        0.0%
BANK11             100      0       0      28        0.0%
BITBANK10          100      0       0      25        0.0%
BANK10             100      0       0      26        0.0%
BITBANK9           100      0       0      23        0.0%
BANK9              100      0       0      24        0.0%
BITBANK8           100      0       0      21        0.0%
BANK8              100      0       0      22        0.0%
BITBANK7           100      0       0      19        0.0%
BANK7              100      0       0      20        0.0%
BITBANK6           100      0       0      17        0.0%
BANK6              100      0       0      18        0.0%
BITBANK5           100      0       0      15        0.0%
BANK5              100      0       0      16        0.0%
BITBANK4           100      0       0      13        0.0%
BANK4              100      0       0      14        0.0%
BITBANK3           100      0       0      11        0.0%
BANK3              100      0       0      12        0.0%
BITBANK2           100      0       0       9        0.0%
BANK2              100      0       0      10        0.0%
BITBANK1           100      0       0       7        0.0%
BANK1              100      0       0       8        0.0%
BITBANK0            A0      0       0       4        0.0%
BANK0               A0      0      80       5       80.0%
BITCOMRAM           5E      0       0       0        0.0%
COMRAM              5E     24      2D       1       47.9%
BITBANK14           41      0       0      33        0.0%
BANK14              41      0       0      34        0.0%
BITSFR_2             0      0       0      40        0.0%
SFR_2                0      0       0      40        0.0%
BITSFR_1             0      0       0      40        0.0%
SFR_1                0      0       0      40        0.0%
BITSFR               0      0       0      40        0.0%
SFR                  0      0       0      40        0.0%
STACK                0      0       0       2        0.0%
NULL                 0      0       0       0        0.0%
ABS                  0      0      AD       6        0.0%
DATA                 0      0      AD       3        0.0%
CODE                 0      0       0       0        0.0%


Microchip Technology PIC18 Macro Assembler V1.38 build -256452561 
Symbol Table                                                                                   Wed Apr 12 00:24:27 2017

                                  _n 0029                          _SSPSTATbits 000FC7  
                       ___awdiv@sign 0017                          __CFG_BORV$3 000000  
                       __CFG_CP0$OFF 000000                         __CFG_CP1$OFF 000000  
                       __CFG_CP2$OFF 000000                         __CFG_CP3$OFF 000000  
                                l207 016C                                  l154 0304  
                                l166 00BA                                  _GIE 007F97  
                       __CFG_CPB$OFF 000000                         __CFG_CPD$OFF 000000  
                                u427 02C2                                  u437 02F8  
                    __end_of_I2C_ISR 03A4                                  wreg 000FE8  
                               l1401 02CC                                 l1405 02F2  
                               l1423 00AA                                 l1361 01BC  
                               l1373 01E2                                 l1375 01EA  
                               l1367 01CC                                 l1393 0222  
                               l1385 020A                                 l1377 01EE  
                               l1389 0214                                 l1399 02BC  
                               _LATA 000F89                                 _LATB 000F8A  
                               _LATC 000F8B                                 _LATD 000F8C  
                               _LATE 000F8D                                 _IPEN 007E87  
                               _PEIE 007F96                                 _WPUB 000F5B  
                               _data 0027                                 _main 008E  
                               fsr0h 000FEA                                 fsr1h 000FE2  
                               fsr0l 000FE9                                 fsr2h 000FDA  
                               fsr1l 000FE1                                 fsr2l 000FD9  
                               btemp 002E                                 pclat 000FFA  
                               prodh 000FF4                                 prodl 000FF3  
                               start 008A                        __CFG_IESO$OFF 000000  
                      __CFG_FOSC$HS2 000000                        __CFG_MCLRE$ON 000000  
                       ___param_bank 000010       __size_of_OSCILLATOR_Initialize 0012  
      __end_of_OSCILLATOR_Initialize 0470                                ?_main 0001  
                    __end_of___awdiv 022C                      ___awdiv@divisor 0014  
                              _LATB0 007C50                                _LATC0 007C58  
                              _LATB2 007C52                                _LATC1 007C59  
                              _LATB3 007C53                                _LATD0 007C60  
                              _LATC2 007C5A                                _LATD1 007C61  
                              _LATD2 007C62                                _LATD3 007C63  
                              i2l322 0396                                i2l318 038A  
                              i2l353 03D6                                i2l377 004E  
                    ___awdiv@counter 0016                                _TRISA 000F92  
                              _TRISB 000F93                                _TRISC 000F94  
                              _TRISD 000F95                                _SSPIE 007CEB  
                              _TRISE 000F96                                _SSPIF 007CF3  
                      __CFG_WRT0$OFF 000000                        __CFG_WRT1$OFF 000000  
                      __CFG_WRT2$OFF 000000                        __CFG_WRT3$OFF 000000  
                     __CFG_EBTR0$OFF 000000                       __CFG_FCMEN$OFF 000000  
                     __CFG_EBTR1$OFF 000000                       __CFG_EBTR2$OFF 000000  
                     __CFG_EBTR3$OFF 000000                        __CFG_WRTB$OFF 000000  
                      __CFG_WRTC$OFF 000000                        __CFG_WRTD$OFF 000000  
                     __CFG_EBTRB$OFF 000000                                main@i 0021  
                              tablat 000FF5                                status 000FD8  
                    __initialization 031A           __end_of_EUSART1_Initialize 045E  
                       __end_of_main 01A8                            ??_I2C_ISR 0003  
        ?_INTERRUPT_InterruptManager 0001                               ??_main 0021  
                      __activetblptr 000002                       __CFG_RETEN$OFF 000000  
         __end_of_EUSART2_Initialize 0448                     ___awdiv@dividend 0012  
             I2C_StatusCallback@data 0002                               i2l1071 03E6  
                    __CFG_BBSIZ$BB2K 000000                               i2l1067 03DC  
                             i2l1181 03A0                               i2l1175 0382  
                     __CFG_WDTEN$OFF 000000                               _RCREG1 000FAE  
                             _RCREG2 000F7A                               _RCSTA1 000FAB  
                             _RCSTA2 000FA6                               _OSCCON 000FD3  
                             _SPBRG1 000FAF                               _SPBRG2 000F7B  
                             _SSPADD 000FC8                               _TRISC0 007CA0  
                             _TRISC1 007CA1                               _TRISC3 007CA3  
                             _TRISC4 007CA4                               _SSPBUF 000FC9  
                             _TXREG1 000FAD                               _TXREG2 000F79  
                             _TXSTA1 000FAC                               _TXSTA2 000FBA  
                   __end_of_delay_ms 031A                       __CFG_XINST$OFF 000000  
                          ??___awdiv 0016                       __CFG_STVREN$ON 000000  
                             clear_0 0352                     ___awdiv@quotient 0018  
                 _I2C_StatusCallback 03D2              __size_of_I2C_Initialize 001A  
                       __pdataCOMRAM 002D                  ?_I2C_StatusCallback 0001  
                             tblptrh 000FF7                               tblptrl 000FF6  
                             tblptru 000FF8        __size_of_INTERRUPT_Initialize 0006  
                  _SYSTEM_Initialize 03FE                           __accesstop 0060  
            __end_of__initialization 0358                   ?_SYSTEM_Initialize 0001  
                      ___rparam_used 000001                 ??_I2C_StatusCallback 0001  
                     __pcstackCOMRAM 0001                         __pidataBANK0 022C  
                ??_SYSTEM_Initialize 0012            __end_of_SYSTEM_Initialize 0418  
                    __CFG_PLLCFG$OFF 000000                              _I2C_ISR 0366  
                   __CFG_CANMX$PORTB 000000                              _REFOCON 000F9A  
                            _OSCCON2 000FD2                            ?_delay_ms 001A  
                            _OSCTUNE 000F9B                              _SPBRGH1 000F7D  
                            _SPBRGH2 000F7C                              _SSPCON1 000FC6  
                            _SSPCON2 000FC5                              _SSPSTAT 000FC7  
                    __CFG_PWRTEN$OFF 000000                              __Hparam 0000  
                            __Lparam 0000                              ___awdiv 01A8  
                            _address 0025                              __pcinit 031A  
                     _I2C_Initialize 0418                              __ramtop 0F00  
                            __ptext0 008E                              __ptext1 02AC  
                            __ptext2 01A8                              __ptext3 03FE  
                            __ptext4 03A4                              __ptext5 045E  
                            __ptext6 0470                              __ptext7 0418  
                            __ptext8 0432                              __ptext9 0448  
              _OSCILLATOR_Initialize 045E                   _EUSART1_Initialize 0448  
           ??_PIN_MANAGER_Initialize 0012                    __CFG_MSSPMSK$MSK7 000000  
                         ??_delay_ms 001C           __size_of_SYSTEM_Initialize 001A  
                         delay_ms@ms 001A                 end_of_initialization 0358  
                ?_EUSART1_Initialize 0001   I2C_StatusCallbackOld@EEPROM_Buffer 0060  
                      __Lmediumconst 0000                   _EUSART2_Initialize 0432  
                            postdec1 000FE5                              postinc0 000FEE  
             __end_of_I2C_Initialize 0432                 ??_EUSART1_Initialize 0012  
                ?_EUSART2_Initialize 0001                            _PORTCbits 000F82  
               ??_EUSART2_Initialize 0012         __end_of_INTERRUPT_Initialize 0476  
                    ?_I2C_Initialize 0001                        __pidataCOMRAM 0476  
             ?_OSCILLATOR_Initialize 0001                  start_initialization 031A  
    __size_of_PIN_MANAGER_Initialize 002E          __size_of_I2C_StatusCallback 002C  
                        __pdataBANK0 0060                             ?_I2C_ISR 0001  
                        __pbssCOMRAM 0025                    __size_of_delay_ms 006E  
             _PIN_MANAGER_Initialize 03A4                            __pintcode 0008  
                           ?___awdiv 0012         ??_INTERRUPT_InterruptManager 0004  
                           _BAUDCON1 000FA7                             _BAUDCON2 000FB9  
 I2C_StatusCallbackOld@eepromAddress 002B                 _INTERRUPT_Initialize 0470  
                          delay_ms@i 001F                            delay_ms@n 001D  
                           _IPR1bits 000F9F                             _PIE1bits 000F9D  
__size_of_INTERRUPT_InterruptManager 0082                             _PIR1bits 000F9E  
                           _PIR3bits 000FA4                     __size_of_I2C_ISR 003E  
                   __CFG_SOSCSEL$DIG 000000                            main@delay 0023  
                          copy_data0 032E                ?_INTERRUPT_Initialize 0001  
                   ??_I2C_Initialize 0012                             __Hrparam 0000  
                           __Lrparam 0000                   __CFG_BOREN$SBORDIS 000000  
            ??_OSCILLATOR_Initialize 0012                      I2C_ISR@i2c_data 0003  
                   __size_of___awdiv 0084          __size_of_EUSART1_Initialize 0016  
                           _delay_ms 02AC                             __ptext11 0366  
                           __ptext12 03D2          __size_of_EUSART2_Initialize 0016  
                      __size_of_main 011A  I2C_StatusCallbackOld@slaveWriteType 002C  
                           int$flags 002E   __end_of_INTERRUPT_InterruptManager 008A  
         _INTERRUPT_InterruptManager 0008                  __CFG_INTOSCSEL$HIGH 000000  
                 _I2C_slaveWriteData 002D                           _INTCONbits 000FF2  
             ??_INTERRUPT_Initialize 0012                             intlevel2 0000  
            ?_PIN_MANAGER_Initialize 0001           __end_of_I2C_StatusCallback 03FE  
                         _RCSTA1bits 000FAB                           _RCSTA2bits 000FA6  
    I2C_StatusCallback@i2c_bus_state 0001                   __CFG_WDTPS$1048576 000000  
                        _SSPCON1bits 000FC6       __end_of_PIN_MANAGER_Initialize 03D2  
                __CFG_BORPWR$ZPBORMV 000000  
